ccopy_reg
_reconstructor
p0
(cneat.genome
DefaultGenome
p1
c__builtin__
object
p2
Ntp3
Rp4
(dp5
S'connections'
p6
(dp7
(I-23
I0
tp8
g0
(cneat.genes
DefaultConnectionGene
p9
g2
Ntp10
Rp11
(dp12
S'enabled'
p13
I01
sS'weight'
p14
F1.1367608633301092
sS'key'
p15
g8
sbs(I-26
I7
tp16
g0
(g9
g2
Ntp17
Rp18
(dp19
g13
I01
sg14
F-0.2750964982816735
sg15
g16
sbs(I-1
I0
tp20
g0
(g9
g2
Ntp21
Rp22
(dp23
g13
I01
sg14
F-0.5270643001650548
sg15
g20
sbs(I-38
I0
tp24
g0
(g9
g2
Ntp25
Rp26
(dp27
g13
I01
sg14
F-0.9178967880602558
sg15
g24
sbs(I-17
I0
tp28
g0
(g9
g2
Ntp29
Rp30
(dp31
g13
I01
sg14
F0.12291442109690554
sg15
g28
sbs(I-39
I7
tp32
g0
(g9
g2
Ntp33
Rp34
(dp35
g13
I01
sg14
F-1.529872023616569
sg15
g32
sbs(I-40
I0
tp36
g0
(g9
g2
Ntp37
Rp38
(dp39
g13
I01
sg14
F-0.5188979468001496
sg15
g36
sbs(I-7
I0
tp40
g0
(g9
g2
Ntp41
Rp42
(dp43
g13
I01
sg14
F0.16006571891789756
sg15
g40
sbs(I-19
I7
tp44
g0
(g9
g2
Ntp45
Rp46
(dp47
g13
I01
sg14
F-0.725367016112415
sg15
g44
sbs(I-10
I7
tp48
g0
(g9
g2
Ntp49
Rp50
(dp51
g13
I01
sg14
F-1.4084911380608058
sg15
g48
sbs(I-27
I0
tp52
g0
(g9
g2
Ntp53
Rp54
(dp55
g13
I01
sg14
F1.5887729743056795
sg15
g52
sbs(I-6
I7
tp56
g0
(g9
g2
Ntp57
Rp58
(dp59
g13
I01
sg14
F-0.345723973608823
sg15
g56
sbs(I-36
I7
tp60
g0
(g9
g2
Ntp61
Rp62
(dp63
g13
I01
sg14
F1.0863261379198788
sg15
g60
sbs(I-37
I0
tp64
g0
(g9
g2
Ntp65
Rp66
(dp67
g13
I01
sg14
F-0.9742945519958164
sg15
g64
sbs(I-3
I7
tp68
g0
(g9
g2
Ntp69
Rp70
(dp71
g13
I01
sg14
F-0.07285595674407946
sg15
g68
sbs(I-11
I0
tp72
g0
(g9
g2
Ntp73
Rp74
(dp75
g13
I01
sg14
F-0.3253148858206691
sg15
g72
sbs(I-2
I7
tp76
g0
(g9
g2
Ntp77
Rp78
(dp79
g13
I01
sg14
F1.3211546441781552
sg15
g76
sbs(I-7
I7
tp80
g0
(g9
g2
Ntp81
Rp82
(dp83
g13
I01
sg14
F1.5048705774553444
sg15
g80
sbs(I-21
I0
tp84
g0
(g9
g2
Ntp85
Rp86
(dp87
g13
I01
sg14
F1.2543975506322265
sg15
g84
sbs(I-41
I0
tp88
g0
(g9
g2
Ntp89
Rp90
(dp91
g13
I01
sg14
F-0.7472103810153308
sg15
g88
sbs(I-17
I7
tp92
g0
(g9
g2
Ntp93
Rp94
(dp95
g13
I01
sg14
F-0.10720364865774332
sg15
g92
sbs(I-36
I0
tp96
g0
(g9
g2
Ntp97
Rp98
(dp99
g13
I01
sg14
F-1.398268689020509
sg15
g96
sbs(I-14
I21
tp100
g0
(g9
g2
Ntp101
Rp102
(dp103
g13
I01
sg14
F1.4953873026974582
sg15
g100
sbs(I-34
I7
tp104
g0
(g9
g2
Ntp105
Rp106
(dp107
g13
I01
sg14
F-0.8500382163337855
sg15
g104
sbs(I-30
I7
tp108
g0
(g9
g2
Ntp109
Rp110
(dp111
g13
I01
sg14
F0.1352725983657125
sg15
g108
sbs(I-21
I7
tp112
g0
(g9
g2
Ntp113
Rp114
(dp115
g13
I01
sg14
F0.23151904472310056
sg15
g112
sbs(I-20
I0
tp116
g0
(g9
g2
Ntp117
Rp118
(dp119
g13
I01
sg14
F0.10629817878511745
sg15
g116
sbs(I-14
I7
tp120
g0
(g9
g2
Ntp121
Rp122
(dp123
g13
I01
sg14
F-0.28360493591928737
sg15
g120
sbs(I-5
I7
tp124
g0
(g9
g2
Ntp125
Rp126
(dp127
g13
I01
sg14
F-0.9253838219787126
sg15
g124
sbs(I-4
I0
tp128
g0
(g9
g2
Ntp129
Rp130
(dp131
g13
I01
sg14
F0.1512177150674514
sg15
g128
sbs(I-12
I0
tp132
g0
(g9
g2
Ntp133
Rp134
(dp135
g13
I01
sg14
F1.0136569723212832
sg15
g132
sbs(I-1
I7
tp136
g0
(g9
g2
Ntp137
Rp138
(dp139
g13
I01
sg14
F-0.950018744865636
sg15
g136
sbs(I-31
I0
tp140
g0
(g9
g2
Ntp141
Rp142
(dp143
g13
I01
sg14
F-0.6240137426855372
sg15
g140
sbs(I-19
I0
tp144
g0
(g9
g2
Ntp145
Rp146
(dp147
g13
I01
sg14
F1.4123538948689807
sg15
g144
sbs(I-41
I7
tp148
g0
(g9
g2
Ntp149
Rp150
(dp151
g13
I01
sg14
F0.3426559239562835
sg15
g148
sbs(I-34
I0
tp152
g0
(g9
g2
Ntp153
Rp154
(dp155
g13
I01
sg14
F1.0982986609765861
sg15
g152
sbs(I-15
I7
tp156
g0
(g9
g2
Ntp157
Rp158
(dp159
g13
I01
sg14
F0.07811253516954995
sg15
g156
sbs(I-29
I0
tp160
g0
(g9
g2
Ntp161
Rp162
(dp163
g13
I01
sg14
F-2.299431246968931
sg15
g160
sbs(I-24
I0
tp164
g0
(g9
g2
Ntp165
Rp166
(dp167
g13
I01
sg14
F0.9147401101593584
sg15
g164
sbs(I-25
I7
tp168
g0
(g9
g2
Ntp169
Rp170
(dp171
g13
I01
sg14
F0.42518006380172335
sg15
g168
sbs(I-3
I0
tp172
g0
(g9
g2
Ntp173
Rp174
(dp175
g13
I01
sg14
F0.4326216149251686
sg15
g172
sbs(I-39
I0
tp176
g0
(g9
g2
Ntp177
Rp178
(dp179
g13
I01
sg14
F0.5754910161301505
sg15
g176
sbs(I-29
I7
tp180
g0
(g9
g2
Ntp181
Rp182
(dp183
g13
I01
sg14
F-0.005635355643782924
sg15
g180
sbs(I21
I7
tp184
g0
(g9
g2
Ntp185
Rp186
(dp187
g13
I01
sg14
F0.13968255567231455
sg15
g184
sbs(I-9
I7
tp188
g0
(g9
g2
Ntp189
Rp190
(dp191
g13
I01
sg14
F1.5130533422806
sg15
g188
sbssS'nodes'
p192
(dp193
I0
g0
(cneat.genes
DefaultNodeGene
p194
g2
Ntp195
Rp196
(dp197
S'activation'
p198
S'sigmoid'
p199
sS'bias'
p200
F-2.146265073850763
sS'response'
p201
F1.0
sg15
I0
sS'aggregation'
p202
S'sum'
p203
sbsI21
g0
(g194
g2
Ntp204
Rp205
(dp206
g198
g199
sg200
F0.9364526828268299
sg201
F1.0
sg15
I21
sg202
g203
sbsI7
g0
(g194
g2
Ntp207
Rp208
(dp209
g198
g199
sg200
F1.7350832022717673
sg201
F1.0
sg15
I7
sg202
g203
sbssg15
I46
sS'fitness'
p210
I-1000
sb.