ccopy_reg
_reconstructor
p0
(cneat.genome
DefaultGenome
p1
c__builtin__
object
p2
Ntp3
Rp4
(dp5
S'connections'
p6
(dp7
(I-23
I0
tp8
g0
(cneat.genes
DefaultConnectionGene
p9
g2
Ntp10
Rp11
(dp12
S'enabled'
p13
I01
sS'weight'
p14
F0.8269830841046378
sS'key'
p15
g8
sbs(I-1
I0
tp16
g0
(g9
g2
Ntp17
Rp18
(dp19
g13
I01
sg14
F-0.6163129432099658
sg15
g16
sbs(I-43
I0
tp20
g0
(g9
g2
Ntp21
Rp22
(dp23
g13
I01
sg14
F-0.29148719868605094
sg15
g20
sbs(I-33
I4
tp24
g0
(g9
g2
Ntp25
Rp26
(dp27
g13
I01
sg14
F-0.6941607553919223
sg15
g24
sbs(I-12
I0
tp28
g0
(g9
g2
Ntp29
Rp30
(dp31
g13
I01
sg14
F-0.08014295079218542
sg15
g28
sbs(I-42
I4
tp32
g0
(g9
g2
Ntp33
Rp34
(dp35
g13
I01
sg14
F-0.2955012534010288
sg15
g32
sbs(I-43
I4
tp36
g0
(g9
g2
Ntp37
Rp38
(dp39
g13
I01
sg14
F1.3957440533034755
sg15
g36
sbs(I-37
I4
tp40
g0
(g9
g2
Ntp41
Rp42
(dp43
g13
I01
sg14
F-0.03315716849995447
sg15
g40
sbs(I-38
I4
tp44
g0
(g9
g2
Ntp45
Rp46
(dp47
g13
I01
sg14
F-0.266467154101738
sg15
g44
sbs(I-32
I4
tp48
g0
(g9
g2
Ntp49
Rp50
(dp51
g13
I01
sg14
F1.4411208812529686
sg15
g48
sbs(I-22
I0
tp52
g0
(g9
g2
Ntp53
Rp54
(dp55
g13
I01
sg14
F-0.9295838139484808
sg15
g52
sbs(I-42
I0
tp56
g0
(g9
g2
Ntp57
Rp58
(dp59
g13
I01
sg14
F0.3387568327343448
sg15
g56
sbs(I-2
I0
tp60
g0
(g9
g2
Ntp61
Rp62
(dp63
g13
I01
sg14
F1.1654468731529972
sg15
g60
sbs(I-27
I4
tp64
g0
(g9
g2
Ntp65
Rp66
(dp67
g13
I01
sg14
F1.2452846831184332
sg15
g64
sbs(I-32
I0
tp68
g0
(g9
g2
Ntp69
Rp70
(dp71
g13
I01
sg14
F1.477526298412824
sg15
g68
sbs(I-22
I4
tp72
g0
(g9
g2
Ntp73
Rp74
(dp75
g13
I01
sg14
F0.08807904745696093
sg15
g72
sbs(I-11
I0
tp76
g0
(g9
g2
Ntp77
Rp78
(dp79
g13
I01
sg14
F-1.621533638935433
sg15
g76
sbs(I-6
I0
tp80
g0
(g9
g2
Ntp81
Rp82
(dp83
g13
I01
sg14
F-1.3988529305907267
sg15
g80
sbs(I-26
I0
tp84
g0
(g9
g2
Ntp85
Rp86
(dp87
g13
I01
sg14
F-0.20917779778632312
sg15
g84
sbs(I-21
I0
tp88
g0
(g9
g2
Ntp89
Rp90
(dp91
g13
I01
sg14
F-1.619062815677923
sg15
g88
sbs(I-10
I4
tp92
g0
(g9
g2
Ntp93
Rp94
(dp95
g13
I01
sg14
F0.48988337819779687
sg15
g92
sbs(I-16
I0
tp96
g0
(g9
g2
Ntp97
Rp98
(dp99
g13
I01
sg14
F-0.39546531628858456
sg15
g96
sbs(I-6
I4
tp100
g0
(g9
g2
Ntp101
Rp102
(dp103
g13
I01
sg14
F-0.5781873072609006
sg15
g100
sbs(I4
I0
tp104
g0
(g9
g2
Ntp105
Rp106
(dp107
g13
I01
sg14
F-0.8643626665415421
sg15
g104
sbs(I-5
I0
tp108
g0
(g9
g2
Ntp109
Rp110
(dp111
g13
I01
sg14
F0.34510608392674663
sg15
g108
sbs(I-25
I0
tp112
g0
(g9
g2
Ntp113
Rp114
(dp115
g13
I01
sg14
F0.024729551044592814
sg15
g112
sbs(I-20
I0
tp116
g0
(g9
g2
Ntp117
Rp118
(dp119
g13
I01
sg14
F-2.096773396572541
sg15
g116
sbs(I-15
I0
tp120
g0
(g9
g2
Ntp121
Rp122
(dp123
g13
I01
sg14
F-1.0518045839158165
sg15
g120
sbs(I-40
I4
tp124
g0
(g9
g2
Ntp125
Rp126
(dp127
g13
I01
sg14
F1.1431578884232798
sg15
g124
sbs(I-30
I0
tp128
g0
(g9
g2
Ntp129
Rp130
(dp131
g13
I01
sg14
F-1.1441535309218585
sg15
g128
sbs(I-20
I4
tp132
g0
(g9
g2
Ntp133
Rp134
(dp135
g13
I01
sg14
F0.5781112934165038
sg15
g132
sbs(I-4
I0
tp136
g0
(g9
g2
Ntp137
Rp138
(dp139
g13
I01
sg14
F-0.40757954656421946
sg15
g136
sbs(I-34
I4
tp140
g0
(g9
g2
Ntp141
Rp142
(dp143
g13
I01
sg14
F-0.5329769342877332
sg15
g140
sbs(I-40
I0
tp144
g0
(g9
g2
Ntp145
Rp146
(dp147
g13
I01
sg14
F-1.2703885284790752
sg15
g144
sbs(I-29
I4
tp148
g0
(g9
g2
Ntp149
Rp150
(dp151
g13
I01
sg14
F-0.8528797808102238
sg15
g148
sbs(I-30
I4
tp152
g0
(g9
g2
Ntp153
Rp154
(dp155
g13
I01
sg14
F0.3835217151134953
sg15
g152
sbs(I-14
I0
tp156
g0
(g9
g2
Ntp157
Rp158
(dp159
g13
I01
sg14
F0.9414686050013473
sg15
g156
sbs(I-13
I4
tp160
g0
(g9
g2
Ntp161
Rp162
(dp163
g13
I01
sg14
F-0.3923009238786314
sg15
g160
sbs(I-14
I4
tp164
g0
(g9
g2
Ntp165
Rp166
(dp167
g13
I01
sg14
F0.8971906895444822
sg15
g164
sbs(I-8
I4
tp168
g0
(g9
g2
Ntp169
Rp170
(dp171
g13
I01
sg14
F1.0511562205027576
sg15
g168
sbs(I-1
I4
tp172
g0
(g9
g2
Ntp173
Rp174
(dp175
g13
I01
sg14
F-0.30665876688245713
sg15
g172
sbs(I-3
I4
tp176
g0
(g9
g2
Ntp177
Rp178
(dp179
g13
I01
sg14
F-0.424280305880352
sg15
g176
sbs(I-33
I0
tp180
g0
(g9
g2
Ntp181
Rp182
(dp183
g13
I01
sg14
F0.3749480594801053
sg15
g180
sbs(I-28
I0
tp184
g0
(g9
g2
Ntp185
Rp186
(dp187
g13
I01
sg14
F1.053054631659315
sg15
g184
sbssS'nodes'
p188
(dp189
I0
g0
(cneat.genes
DefaultNodeGene
p190
g2
Ntp191
Rp192
(dp193
S'activation'
p194
S'sigmoid'
p195
sS'bias'
p196
F-1.3149255275682616
sS'response'
p197
F1.0
sg15
I0
sS'aggregation'
p198
S'sum'
p199
sbsI4
g0
(g190
g2
Ntp200
Rp201
(dp202
g194
g195
sg196
F-0.34003341491034506
sg197
F1.0
sg15
I4
sg198
g199
sbssg15
I4
sS'fitness'
p203
I-1000
sb.