ccopy_reg
_reconstructor
p0
(cneat.genome
DefaultGenome
p1
c__builtin__
object
p2
Ntp3
Rp4
(dp5
S'connections'
p6
(dp7
(I-14
I23
tp8
g0
(cneat.genes
DefaultConnectionGene
p9
g2
Ntp10
Rp11
(dp12
S'enabled'
p13
I01
sS'weight'
p14
F2.2095940944645083
sS'key'
p15
g8
sbs(I-23
I0
tp16
g0
(g9
g2
Ntp17
Rp18
(dp19
g13
I01
sg14
F-1.0884938937095425
sg15
g16
sbs(I-1
I0
tp20
g0
(g9
g2
Ntp21
Rp22
(dp23
g13
I01
sg14
F-1.0540110997513774
sg15
g20
sbs(I-38
I0
tp24
g0
(g9
g2
Ntp25
Rp26
(dp27
g13
I01
sg14
F-0.662959769400395
sg15
g24
sbs(I-17
I0
tp28
g0
(g9
g2
Ntp29
Rp30
(dp31
g13
I01
sg14
F0.27348807779555634
sg15
g28
sbs(I-12
I0
tp32
g0
(g9
g2
Ntp33
Rp34
(dp35
g13
I01
sg14
F2.436827649930488
sg15
g32
sbs(I-7
I0
tp36
g0
(g9
g2
Ntp37
Rp38
(dp39
g13
I01
sg14
F-0.6854112944981869
sg15
g36
sbs(I-27
I0
tp40
g0
(g9
g2
Ntp41
Rp42
(dp43
g13
I01
sg14
F-0.05904522358417927
sg15
g40
sbs(I-37
I0
tp44
g0
(g9
g2
Ntp45
Rp46
(dp47
g13
I01
sg14
F-2.6961269646206913
sg15
g44
sbs(I-11
I0
tp48
g0
(g9
g2
Ntp49
Rp50
(dp51
g13
I01
sg14
F-0.9626958149106273
sg15
g48
sbs(I-21
I0
tp52
g0
(g9
g2
Ntp53
Rp54
(dp55
g13
I01
sg14
F2.459844928468626
sg15
g52
sbs(I-41
I0
tp56
g0
(g9
g2
Ntp57
Rp58
(dp59
g13
I00
sg14
F-1.648809511956058
sg15
g56
sbs(I-36
I0
tp60
g0
(g9
g2
Ntp61
Rp62
(dp63
g13
I01
sg14
F1.2061754879212732
sg15
g60
sbs(I-14
I21
tp64
g0
(g9
g2
Ntp65
Rp66
(dp67
g13
I00
sg14
F2.003579200942405
sg15
g64
sbs(I-20
I0
tp68
g0
(g9
g2
Ntp69
Rp70
(dp71
g13
I01
sg14
F-0.8806325950355147
sg15
g68
sbs(I-4
I0
tp72
g0
(g9
g2
Ntp73
Rp74
(dp75
g13
I01
sg14
F-0.31978853605624835
sg15
g72
sbs(I-40
I0
tp76
g0
(g9
g2
Ntp77
Rp78
(dp79
g13
I01
sg14
F-0.03396584628226543
sg15
g76
sbs(I-31
I0
tp80
g0
(g9
g2
Ntp81
Rp82
(dp83
g13
I01
sg14
F-1.6199596821083313
sg15
g80
sbs(I-19
I0
tp84
g0
(g9
g2
Ntp85
Rp86
(dp87
g13
I01
sg14
F0.9698475277622619
sg15
g84
sbs(I-34
I0
tp88
g0
(g9
g2
Ntp89
Rp90
(dp91
g13
I01
sg14
F0.20578188488408466
sg15
g88
sbs(I-29
I0
tp92
g0
(g9
g2
Ntp93
Rp94
(dp95
g13
I01
sg14
F-2.0389993561070456
sg15
g92
sbs(I-24
I0
tp96
g0
(g9
g2
Ntp97
Rp98
(dp99
g13
I01
sg14
F-0.8268376804833565
sg15
g96
sbs(I-3
I0
tp100
g0
(g9
g2
Ntp101
Rp102
(dp103
g13
I01
sg14
F0.304497508559552
sg15
g100
sbs(I-39
I0
tp104
g0
(g9
g2
Ntp105
Rp106
(dp107
g13
I01
sg14
F0.4190603056841353
sg15
g104
sbssS'nodes'
p108
(dp109
I0
g0
(cneat.genes
DefaultNodeGene
p110
g2
Ntp111
Rp112
(dp113
S'activation'
p114
S'sigmoid'
p115
sS'bias'
p116
F-0.40425581922751375
sS'response'
p117
F1.0
sg15
I0
sS'aggregation'
p118
S'sum'
p119
sbsI21
g0
(g110
g2
Ntp120
Rp121
(dp122
g114
g115
sg116
F-1.6010657692585484
sg117
F1.0
sg15
I21
sg118
g119
sbsI23
g0
(g110
g2
Ntp123
Rp124
(dp125
g114
g115
sg116
F0.6583752095126832
sg117
F1.0
sg15
I23
sg118
g119
sbssg15
I99
sS'fitness'
p126
F17.5
sb.