ccopy_reg
_reconstructor
p0
(cneat.genome
DefaultGenome
p1
c__builtin__
object
p2
Ntp3
Rp4
(dp5
S'connections'
p6
(dp7
(I-23
I0
tp8
g0
(cneat.genes
DefaultConnectionGene
p9
g2
Ntp10
Rp11
(dp12
S'enabled'
p13
I01
sS'weight'
p14
F0.8656330978932747
sS'key'
p15
g8
sbs(I-1
I0
tp16
g0
(g9
g2
Ntp17
Rp18
(dp19
g13
I01
sg14
F-0.3467957849434357
sg15
g16
sbs(I-38
I0
tp20
g0
(g9
g2
Ntp21
Rp22
(dp23
g13
I01
sg14
F-0.49003207236856594
sg15
g20
sbs(I-17
I0
tp24
g0
(g9
g2
Ntp25
Rp26
(dp27
g13
I01
sg14
F-1.4715711054928238
sg15
g24
sbs(I-12
I0
tp28
g0
(g9
g2
Ntp29
Rp30
(dp31
g13
I01
sg14
F1.4895175727356487
sg15
g28
sbs(I-7
I0
tp32
g0
(g9
g2
Ntp33
Rp34
(dp35
g13
I01
sg14
F0.028377180054082247
sg15
g32
sbs(I-27
I0
tp36
g0
(g9
g2
Ntp37
Rp38
(dp39
g13
I01
sg14
F0.27531501410654563
sg15
g36
sbs(I-37
I0
tp40
g0
(g9
g2
Ntp41
Rp42
(dp43
g13
I01
sg14
F1.1230375850683039
sg15
g40
sbs(I-11
I0
tp44
g0
(g9
g2
Ntp45
Rp46
(dp47
g13
I01
sg14
F-1.1156814606578864
sg15
g44
sbs(I-21
I0
tp48
g0
(g9
g2
Ntp49
Rp50
(dp51
g13
I01
sg14
F1.6327550675284428
sg15
g48
sbs(I-41
I0
tp52
g0
(g9
g2
Ntp53
Rp54
(dp55
g13
I01
sg14
F-1.285182808863579
sg15
g52
sbs(I-36
I0
tp56
g0
(g9
g2
Ntp57
Rp58
(dp59
g13
I01
sg14
F0.8182227541988036
sg15
g56
sbs(I-31
I0
tp60
g0
(g9
g2
Ntp61
Rp62
(dp63
g13
I01
sg14
F-0.8110296469768588
sg15
g60
sbs(I-20
I0
tp64
g0
(g9
g2
Ntp65
Rp66
(dp67
g13
I00
sg14
F-0.05899477944437867
sg15
g64
sbs(I-4
I0
tp68
g0
(g9
g2
Ntp69
Rp70
(dp71
g13
I01
sg14
F0.6873386243889237
sg15
g68
sbs(I-40
I0
tp72
g0
(g9
g2
Ntp73
Rp74
(dp75
g13
I01
sg14
F-1.871736620997813
sg15
g72
sbs(I-19
I0
tp76
g0
(g9
g2
Ntp77
Rp78
(dp79
g13
I01
sg14
F-0.6550279006356879
sg15
g76
sbs(I-34
I0
tp80
g0
(g9
g2
Ntp81
Rp82
(dp83
g13
I01
sg14
F-0.7798782769006367
sg15
g80
sbs(I-29
I0
tp84
g0
(g9
g2
Ntp85
Rp86
(dp87
g13
I01
sg14
F-1.9959170482393882
sg15
g84
sbs(I-24
I0
tp88
g0
(g9
g2
Ntp89
Rp90
(dp91
g13
I01
sg14
F0.04529985032715825
sg15
g88
sbs(I-3
I0
tp92
g0
(g9
g2
Ntp93
Rp94
(dp95
g13
I01
sg14
F-0.7245087667932992
sg15
g92
sbs(I-39
I0
tp96
g0
(g9
g2
Ntp97
Rp98
(dp99
g13
I01
sg14
F-0.36930221081045406
sg15
g96
sbs(I-8
I0
tp100
g0
(g9
g2
Ntp101
Rp102
(dp103
g13
I01
sg14
F-0.21729059311724808
sg15
g100
sbssS'nodes'
p104
(dp105
I0
g0
(cneat.genes
DefaultNodeGene
p106
g2
Ntp107
Rp108
(dp109
S'activation'
p110
S'sigmoid'
p111
sS'bias'
p112
F0.27671976325413655
sS'response'
p113
F1.0
sg15
I0
sS'aggregation'
p114
S'sum'
p115
sbssg15
I124
sS'fitness'
p116
F-83.5
sb.