ccopy_reg
_reconstructor
p0
(cneat.genome
DefaultGenome
p1
c__builtin__
object
p2
Ntp3
Rp4
(dp5
S'connections'
p6
(dp7
(I-19
I12
tp8
g0
(cneat.genes
DefaultConnectionGene
p9
g2
Ntp10
Rp11
(dp12
S'enabled'
p13
I01
sS'weight'
p14
F0.13847464625320877
sS'key'
p15
g8
sbs(I-12
I12
tp16
g0
(g9
g2
Ntp17
Rp18
(dp19
g13
I01
sg14
F-0.8422441301981687
sg15
g16
sbs(I-1
I0
tp20
g0
(g9
g2
Ntp21
Rp22
(dp23
g13
I01
sg14
F0.1206451014996
sg15
g20
sbs(I-43
I0
tp24
g0
(g9
g2
Ntp25
Rp26
(dp27
g13
I01
sg14
F-0.1990225380309748
sg15
g24
sbs(I-38
I0
tp28
g0
(g9
g2
Ntp29
Rp30
(dp31
g13
I01
sg14
F-0.24583185494876847
sg15
g28
sbs(I-27
I12
tp32
g0
(g9
g2
Ntp33
Rp34
(dp35
g13
I01
sg14
F-1.3516791099312222
sg15
g32
sbs(I-23
I0
tp36
g0
(g9
g2
Ntp37
Rp38
(dp39
g13
I01
sg14
F1.0741119228199618
sg15
g36
sbs(I-3
I12
tp40
g0
(g9
g2
Ntp41
Rp42
(dp43
g13
I01
sg14
F0.3105796410365438
sg15
g40
sbs(I-14
I12
tp44
g0
(g9
g2
Ntp45
Rp46
(dp47
g13
I01
sg14
F1.2640542511618025
sg15
g44
sbs(I-37
I0
tp48
g0
(g9
g2
Ntp49
Rp50
(dp51
g13
I01
sg14
F-1.443273746099419
sg15
g48
sbs(I-32
I0
tp52
g0
(g9
g2
Ntp53
Rp54
(dp55
g13
I01
sg14
F-1.8745197870880626
sg15
g52
sbs(I-36
I12
tp56
g0
(g9
g2
Ntp57
Rp58
(dp59
g13
I01
sg14
F-0.9874043852675521
sg15
g56
sbs(I-20
I0
tp60
g0
(g9
g2
Ntp61
Rp62
(dp63
g13
I01
sg14
F0.7421412456929619
sg15
g60
sbs(I-37
I12
tp64
g0
(g9
g2
Ntp65
Rp66
(dp67
g13
I01
sg14
F-2.2584778713435556
sg15
g64
sbs(I-26
I0
tp68
g0
(g9
g2
Ntp69
Rp70
(dp71
g13
I01
sg14
F-0.5992576300370303
sg15
g68
sbs(I-1
I12
tp72
g0
(g9
g2
Ntp73
Rp74
(dp75
g13
I01
sg14
F0.024826413822087594
sg15
g72
sbs(I-21
I0
tp76
g0
(g9
g2
Ntp77
Rp78
(dp79
g13
I01
sg14
F-0.283170066092793
sg15
g76
sbs(I-16
I0
tp80
g0
(g9
g2
Ntp81
Rp82
(dp83
g13
I01
sg14
F-0.9735700354639204
sg15
g80
sbs(I-41
I0
tp84
g0
(g9
g2
Ntp85
Rp86
(dp87
g13
I01
sg14
F-0.5763029385312736
sg15
g84
sbs(I-40
I12
tp88
g0
(g9
g2
Ntp89
Rp90
(dp91
g13
I01
sg14
F0.9868755732555549
sg15
g88
sbs(I-16
I12
tp92
g0
(g9
g2
Ntp93
Rp94
(dp95
g13
I01
sg14
F0.7883176282103688
sg15
g92
sbs(I-5
I0
tp96
g0
(g9
g2
Ntp97
Rp98
(dp99
g13
I01
sg14
F-0.3145488957158174
sg15
g96
sbs(I-24
I12
tp100
g0
(g9
g2
Ntp101
Rp102
(dp103
g13
I01
sg14
F-0.03864712747433638
sg15
g100
sbs(I-5
I12
tp104
g0
(g9
g2
Ntp105
Rp106
(dp107
g13
I01
sg14
F-0.353899747697743
sg15
g104
sbs(I-18
I12
tp108
g0
(g9
g2
Ntp109
Rp110
(dp111
g13
I01
sg14
F0.5089122939599533
sg15
g108
sbs(I-13
I12
tp112
g0
(g9
g2
Ntp113
Rp114
(dp115
g13
I01
sg14
F-1.5059430299169916
sg15
g112
sbs(I-15
I12
tp116
g0
(g9
g2
Ntp117
Rp118
(dp119
g13
I01
sg14
F0.6249217809346947
sg15
g116
sbs(I-4
I0
tp120
g0
(g9
g2
Ntp121
Rp122
(dp123
g13
I01
sg14
F-0.6082103395046838
sg15
g120
sbs(I-40
I0
tp124
g0
(g9
g2
Ntp125
Rp126
(dp127
g13
I01
sg14
F-0.7353698059585202
sg15
g124
sbs(I-23
I12
tp128
g0
(g9
g2
Ntp129
Rp130
(dp131
g13
I01
sg14
F-1.2279641949736162
sg15
g128
sbs(I-14
I0
tp132
g0
(g9
g2
Ntp133
Rp134
(dp135
g13
I01
sg14
F0.5138177277406417
sg15
g132
sbs(I12
I0
tp136
g0
(g9
g2
Ntp137
Rp138
(dp139
g13
I01
sg14
F0.34579040982377457
sg15
g136
sbs(I-29
I0
tp140
g0
(g9
g2
Ntp141
Rp142
(dp143
g13
I01
sg14
F-1.4593531206482562
sg15
g140
sbs(I-24
I0
tp144
g0
(g9
g2
Ntp145
Rp146
(dp147
g13
I01
sg14
F0.9908424849170343
sg15
g144
sbs(I-33
I12
tp148
g0
(g9
g2
Ntp149
Rp150
(dp151
g13
I01
sg14
F1.561301667945162
sg15
g148
sbs(I-25
I12
tp152
g0
(g9
g2
Ntp153
Rp154
(dp155
g13
I01
sg14
F0.3573643126564625
sg15
g152
sbs(I-39
I0
tp156
g0
(g9
g2
Ntp157
Rp158
(dp159
g13
I01
sg14
F1.0127185862384047
sg15
g156
sbs(I-28
I12
tp160
g0
(g9
g2
Ntp161
Rp162
(dp163
g13
I01
sg14
F0.6979557966122021
sg15
g160
sbs(I-18
I0
tp164
g0
(g9
g2
Ntp165
Rp166
(dp167
g13
I01
sg14
F0.43652052468068225
sg15
g164
sbs(I-9
I12
tp168
g0
(g9
g2
Ntp169
Rp170
(dp171
g13
I01
sg14
F-0.5164202472895218
sg15
g168
sbs(I-9
I0
tp172
g0
(g9
g2
Ntp173
Rp174
(dp175
g13
I01
sg14
F0.7150060450727119
sg15
g172
sbs(I-43
I12
tp176
g0
(g9
g2
Ntp177
Rp178
(dp179
g13
I01
sg14
F0.13368284981667777
sg15
g176
sbs(I-4
I12
tp180
g0
(g9
g2
Ntp181
Rp182
(dp183
g13
I01
sg14
F2.1843449746014922
sg15
g180
sbs(I-30
I12
tp184
g0
(g9
g2
Ntp185
Rp186
(dp187
g13
I01
sg14
F0.6387922184201738
sg15
g184
sbssS'nodes'
p188
(dp189
I0
g0
(cneat.genes
DefaultNodeGene
p190
g2
Ntp191
Rp192
(dp193
S'activation'
p194
S'sigmoid'
p195
sS'bias'
p196
F-1.3474653964760268
sS'response'
p197
F1.0
sg15
I0
sS'aggregation'
p198
S'sum'
p199
sbsI12
g0
(g190
g2
Ntp200
Rp201
(dp202
g194
g195
sg196
F-0.7921616035435577
sg197
F1.0
sg15
I12
sg198
g199
sbssg15
I12
sS'fitness'
p203
I-1000
sb.