ccopy_reg
_reconstructor
p0
(cneat.genome
DefaultGenome
p1
c__builtin__
object
p2
Ntp3
Rp4
(dp5
S'connections'
p6
(dp7
(I-7
I8
tp8
g0
(cneat.genes
DefaultConnectionGene
p9
g2
Ntp10
Rp11
(dp12
S'enabled'
p13
I01
sS'weight'
p14
F1.0428233948589265
sS'key'
p15
g8
sbs(I-3
I8
tp16
g0
(g9
g2
Ntp17
Rp18
(dp19
g13
I01
sg14
F-2.5043408275635115
sg15
g16
sbs(I-38
I0
tp20
g0
(g9
g2
Ntp21
Rp22
(dp23
g13
I01
sg14
F-0.34744693893244855
sg15
g20
sbs(I8
I0
tp24
g0
(g9
g2
Ntp25
Rp26
(dp27
g13
I01
sg14
F0.7925939199295231
sg15
g24
sbs(I-11
I8
tp28
g0
(g9
g2
Ntp29
Rp30
(dp31
g13
I01
sg14
F0.9054351695116696
sg15
g28
sbs(I-12
I0
tp32
g0
(g9
g2
Ntp33
Rp34
(dp35
g13
I01
sg14
F-0.8489314485453198
sg15
g32
sbs(I-7
I0
tp36
g0
(g9
g2
Ntp37
Rp38
(dp39
g13
I00
sg14
F0.3014826603327005
sg15
g36
sbs(I-7
I33
tp40
g0
(g9
g2
Ntp41
Rp42
(dp43
g13
I01
sg14
F1.515746641913289
sg15
g40
sbs(I-27
I0
tp44
g0
(g9
g2
Ntp45
Rp46
(dp47
g13
I01
sg14
F-0.20139125149588177
sg15
g44
sbs(I24
I0
tp48
g0
(g9
g2
Ntp49
Rp50
(dp51
g13
I01
sg14
F-0.7201987553988018
sg15
g48
sbs(I-42
I0
tp52
g0
(g9
g2
Ntp53
Rp54
(dp55
g13
I01
sg14
F3.898772785358009
sg15
g52
sbs(I-37
I0
tp56
g0
(g9
g2
Ntp57
Rp58
(dp59
g13
I01
sg14
F-1.2218585126310832
sg15
g56
sbs(I-6
I0
tp60
g0
(g9
g2
Ntp61
Rp62
(dp63
g13
I01
sg14
F3.488559139539243
sg15
g60
sbs(I-26
I0
tp64
g0
(g9
g2
Ntp65
Rp66
(dp67
g13
I01
sg14
F-0.12435617182901998
sg15
g64
sbs(I-21
I0
tp68
g0
(g9
g2
Ntp69
Rp70
(dp71
g13
I01
sg14
F-0.09488095580690233
sg15
g68
sbs(I-41
I0
tp72
g0
(g9
g2
Ntp73
Rp74
(dp75
g13
I01
sg14
F-1.1055117056118475
sg15
g72
sbs(I-42
I8
tp76
g0
(g9
g2
Ntp77
Rp78
(dp79
g13
I01
sg14
F-0.5709721842011344
sg15
g76
sbs(I-36
I0
tp80
g0
(g9
g2
Ntp81
Rp82
(dp83
g13
I01
sg14
F-1.6293616365467976
sg15
g80
sbs(I-32
I8
tp84
g0
(g9
g2
Ntp85
Rp86
(dp87
g13
I01
sg14
F-2.1500168113571707
sg15
g84
sbs(I-9
I24
tp88
g0
(g9
g2
Ntp89
Rp90
(dp91
g13
I01
sg14
F1.8715502390954841
sg15
g88
sbs(I-25
I0
tp92
g0
(g9
g2
Ntp93
Rp94
(dp95
g13
I01
sg14
F-3.915609231991056
sg15
g92
sbs(I-26
I8
tp96
g0
(g9
g2
Ntp97
Rp98
(dp99
g13
I01
sg14
F-0.5301593480193473
sg15
g96
sbs(I-21
I8
tp100
g0
(g9
g2
Ntp101
Rp102
(dp103
g13
I01
sg14
F2.749118113611043
sg15
g100
sbs(I-15
I0
tp104
g0
(g9
g2
Ntp105
Rp106
(dp107
g13
I01
sg14
F0.2803430312360813
sg15
g104
sbs(I-16
I8
tp108
g0
(g9
g2
Ntp109
Rp110
(dp111
g13
I01
sg14
F0.18630656649108124
sg15
g108
sbs(I-29
I8
tp112
g0
(g9
g2
Ntp113
Rp114
(dp115
g13
I01
sg14
F1.9312260450939842
sg15
g112
sbs(I-24
I8
tp116
g0
(g9
g2
Ntp117
Rp118
(dp119
g13
I01
sg14
F0.03498206477664334
sg15
g116
sbs(I-9
I0
tp120
g0
(g9
g2
Ntp121
Rp122
(dp123
g13
I00
sg14
F0.8531902305422888
sg15
g120
sbs(I-5
I8
tp124
g0
(g9
g2
Ntp125
Rp126
(dp127
g13
I01
sg14
F-0.23520813275554123
sg15
g124
sbs(I-25
I8
tp128
g0
(g9
g2
Ntp129
Rp130
(dp131
g13
I01
sg14
F2.182626603868017
sg15
g128
sbs(I-18
I8
tp132
g0
(g9
g2
Ntp133
Rp134
(dp135
g13
I01
sg14
F-1.4692031895811888
sg15
g132
sbs(I-20
I8
tp136
g0
(g9
g2
Ntp137
Rp138
(dp139
g13
I01
sg14
F-0.8701957676794299
sg15
g136
sbs(I-13
I8
tp140
g0
(g9
g2
Ntp141
Rp142
(dp143
g13
I01
sg14
F-1.7041279084983465
sg15
g140
sbs(I-15
I8
tp144
g0
(g9
g2
Ntp145
Rp146
(dp147
g13
I01
sg14
F0.9030811820029607
sg15
g144
sbs(I-33
I8
tp148
g0
(g9
g2
Ntp149
Rp150
(dp151
g13
I01
sg14
F-0.6363672679646302
sg15
g148
sbs(I-34
I0
tp152
g0
(g9
g2
Ntp153
Rp154
(dp155
g13
I01
sg14
F-0.6687427745339477
sg15
g152
sbs(I-28
I8
tp156
g0
(g9
g2
Ntp157
Rp158
(dp159
g13
I01
sg14
F1.7384707722394743
sg15
g156
sbs(I-30
I8
tp160
g0
(g9
g2
Ntp161
Rp162
(dp163
g13
I01
sg14
F-1.4752917084705297
sg15
g160
sbs(I-23
I8
tp164
g0
(g9
g2
Ntp165
Rp166
(dp167
g13
I01
sg14
F-0.7268962030159479
sg15
g164
sbs(I-24
I0
tp168
g0
(g9
g2
Ntp169
Rp170
(dp171
g13
I01
sg14
F1.2244316485741826
sg15
g168
sbs(I-9
I8
tp172
g0
(g9
g2
Ntp173
Rp174
(dp175
g13
I01
sg14
F1.6851894252455928
sg15
g172
sbs(I-43
I8
tp176
g0
(g9
g2
Ntp177
Rp178
(dp179
g13
I01
sg14
F-0.018284970340592527
sg15
g176
sbs(I-4
I8
tp180
g0
(g9
g2
Ntp181
Rp182
(dp183
g13
I01
sg14
F1.966116776901555
sg15
g180
sbs(I-39
I0
tp184
g0
(g9
g2
Ntp185
Rp186
(dp187
g13
I01
sg14
F1.076335525678853
sg15
g184
sbs(I-12
I8
tp188
g0
(g9
g2
Ntp189
Rp190
(dp191
g13
I01
sg14
F-0.9401466487598695
sg15
g188
sbs(I-13
I0
tp192
g0
(g9
g2
Ntp193
Rp194
(dp195
g13
I01
sg14
F0.36427363534577734
sg15
g192
sbs(I33
I0
tp196
g0
(g9
g2
Ntp197
Rp198
(dp199
g13
I01
sg14
F1.1486633864493556
sg15
g196
sbs(I-8
I0
tp200
g0
(g9
g2
Ntp201
Rp202
(dp203
g13
I01
sg14
F0.9309040648370817
sg15
g200
sbs(I-27
I8
tp204
g0
(g9
g2
Ntp205
Rp206
(dp207
g13
I01
sg14
F-0.7969107915658645
sg15
g204
sbssS'nodes'
p208
(dp209
I0
g0
(cneat.genes
DefaultNodeGene
p210
g2
Ntp211
Rp212
(dp213
S'activation'
p214
S'sigmoid'
p215
sS'bias'
p216
F-0.5573138187578858
sS'response'
p217
F1.0
sg15
I0
sS'aggregation'
p218
S'sum'
p219
sbsI8
g0
(g210
g2
Ntp220
Rp221
(dp222
g214
g215
sg216
F1.2814644298794442
sg217
F1.0
sg15
I8
sg218
g219
sbsI24
g0
(g210
g2
Ntp223
Rp224
(dp225
g214
g215
sg216
F1.1514094983269993
sg217
F1.0
sg15
I24
sg218
g219
sbsI33
g0
(g210
g2
Ntp226
Rp227
(dp228
g214
g215
sg216
F-0.49134817976306194
sg217
F1.0
sg15
I33
sg218
g219
sbssg15
I105
sS'fitness'
p229
I-1000
sb.