ccopy_reg
_reconstructor
p0
(cneat.genome
DefaultGenome
p1
c__builtin__
object
p2
Ntp3
Rp4
(dp5
S'connections'
p6
(dp7
(I-16
I17
tp8
g0
(cneat.genes
DefaultConnectionGene
p9
g2
Ntp10
Rp11
(dp12
S'enabled'
p13
I01
sS'weight'
p14
F1.10590656000598
sS'key'
p15
g8
sbs(I-23
I0
tp16
g0
(g9
g2
Ntp17
Rp18
(dp19
g13
I01
sg14
F-0.1627086170433575
sg15
g16
sbs(I-2
I0
tp20
g0
(g9
g2
Ntp21
Rp22
(dp23
g13
I01
sg14
F-1.5966795688250737
sg15
g20
sbs(I-4
I0
tp24
g0
(g9
g2
Ntp25
Rp26
(dp27
g13
I01
sg14
F0.6599849591176014
sg15
g24
sbs(I-17
I0
tp28
g0
(g9
g2
Ntp29
Rp30
(dp31
g13
I01
sg14
F0.41936037198732656
sg15
g28
sbs(I-12
I0
tp32
g0
(g9
g2
Ntp33
Rp34
(dp35
g13
I01
sg14
F-0.3909800954252291
sg15
g32
sbs(I-7
I0
tp36
g0
(g9
g2
Ntp37
Rp38
(dp39
g13
I01
sg14
F0.8217852133498942
sg15
g36
sbs(I-20
I17
tp40
g0
(g9
g2
Ntp41
Rp42
(dp43
g13
I01
sg14
F1.4327824221943257
sg15
g40
sbs(I-23
I17
tp44
g0
(g9
g2
Ntp45
Rp46
(dp47
g13
I01
sg14
F-1.63376252984353
sg15
g44
sbs(I-27
I0
tp48
g0
(g9
g2
Ntp49
Rp50
(dp51
g13
I01
sg14
F-1.3011489242265915
sg15
g48
sbs(I-22
I0
tp52
g0
(g9
g2
Ntp53
Rp54
(dp55
g13
I01
sg14
F-0.364978389044909
sg15
g52
sbs(I-42
I0
tp56
g0
(g9
g2
Ntp57
Rp58
(dp59
g13
I01
sg14
F-0.3333696831463952
sg15
g56
sbs(I-37
I0
tp60
g0
(g9
g2
Ntp61
Rp62
(dp63
g13
I01
sg14
F-0.5956232077695643
sg15
g60
sbs(I-32
I0
tp64
g0
(g9
g2
Ntp65
Rp66
(dp67
g13
I01
sg14
F0.8590461682761743
sg15
g64
sbs(I-39
I17
tp68
g0
(g9
g2
Ntp69
Rp70
(dp71
g13
I01
sg14
F-1.319373270510941
sg15
g68
sbs(I-16
I0
tp72
g0
(g9
g2
Ntp73
Rp74
(dp75
g13
I01
sg14
F2.1439764825726177
sg15
g72
sbs(I-24
I17
tp76
g0
(g9
g2
Ntp77
Rp78
(dp79
g13
I01
sg14
F-0.3752375310616348
sg15
g76
sbs(I-43
I17
tp80
g0
(g9
g2
Ntp81
Rp82
(dp83
g13
I01
sg14
F-0.25084762248513015
sg15
g80
sbs(I-31
I0
tp84
g0
(g9
g2
Ntp85
Rp86
(dp87
g13
I01
sg14
F1.0713829681935934
sg15
g84
sbs(I-25
I0
tp88
g0
(g9
g2
Ntp89
Rp90
(dp91
g13
I01
sg14
F-1.0986230126232328
sg15
g88
sbs(I-20
I0
tp92
g0
(g9
g2
Ntp93
Rp94
(dp95
g13
I01
sg14
F2.8604109132157127
sg15
g92
sbs(I-40
I17
tp96
g0
(g9
g2
Ntp97
Rp98
(dp99
g13
I01
sg14
F0.09661068834659893
sg15
g96
sbs(I-15
I0
tp100
g0
(g9
g2
Ntp101
Rp102
(dp103
g13
I01
sg14
F0.3015084935472123
sg15
g100
sbs(I-28
I17
tp104
g0
(g9
g2
Ntp105
Rp106
(dp107
g13
I01
sg14
F-0.36261116834829993
sg15
g104
sbs(I-35
I0
tp108
g0
(g9
g2
Ntp109
Rp110
(dp111
g13
I01
sg14
F0.16415533956438277
sg15
g108
sbs(I-6
I17
tp112
g0
(g9
g2
Ntp113
Rp114
(dp115
g13
I01
sg14
F-0.6232536558323497
sg15
g112
sbs(I-1
I17
tp116
g0
(g9
g2
Ntp117
Rp118
(dp119
g13
I01
sg14
F-1.0490123067825887
sg15
g116
sbs(I-25
I17
tp120
g0
(g9
g2
Ntp121
Rp122
(dp123
g13
I01
sg14
F-1.7211142222862308
sg15
g120
sbs(I-11
I17
tp124
g0
(g9
g2
Ntp125
Rp126
(dp127
g13
I01
sg14
F0.5371956252770433
sg15
g124
sbs(I-33
I17
tp128
g0
(g9
g2
Ntp129
Rp130
(dp131
g13
I01
sg14
F-2.4658376978204806
sg15
g128
sbs(I-15
I17
tp132
g0
(g9
g2
Ntp133
Rp134
(dp135
g13
I01
sg14
F2.407221820881514
sg15
g132
sbs(I-19
I0
tp136
g0
(g9
g2
Ntp137
Rp138
(dp139
g13
I01
sg14
F1.4347303750370362
sg15
g136
sbs(I-14
I0
tp140
g0
(g9
g2
Ntp141
Rp142
(dp143
g13
I01
sg14
F1.4621769361269756
sg15
g140
sbs(I-34
I0
tp144
g0
(g9
g2
Ntp145
Rp146
(dp147
g13
I01
sg14
F0.5064480057935599
sg15
g144
sbs(I-22
I17
tp148
g0
(g9
g2
Ntp149
Rp150
(dp151
g13
I01
sg14
F-1.0988431526517903
sg15
g148
sbs(I17
I0
tp152
g0
(g9
g2
Ntp153
Rp154
(dp155
g13
I01
sg14
F-0.4926822421239814
sg15
g152
sbs(I-24
I0
tp156
g0
(g9
g2
Ntp157
Rp158
(dp159
g13
I01
sg14
F0.48898466950613934
sg15
g156
sbs(I-2
I17
tp160
g0
(g9
g2
Ntp161
Rp162
(dp163
g13
I01
sg14
F-0.812557971212885
sg15
g160
sbs(I-3
I0
tp164
g0
(g9
g2
Ntp165
Rp166
(dp167
g13
I01
sg14
F-0.2117292968072771
sg15
g164
sbs(I-39
I0
tp168
g0
(g9
g2
Ntp169
Rp170
(dp171
g13
I01
sg14
F1.3002934300540077
sg15
g168
sbs(I-5
I17
tp172
g0
(g9
g2
Ntp173
Rp174
(dp175
g13
I01
sg14
F0.5105875612130019
sg15
g172
sbs(I-26
I17
tp176
g0
(g9
g2
Ntp177
Rp178
(dp179
g13
I01
sg14
F-0.7287168183930327
sg15
g176
sbs(I-31
I17
tp180
g0
(g9
g2
Ntp181
Rp182
(dp183
g13
I01
sg14
F-0.6138987403214119
sg15
g180
sbs(I-33
I0
tp184
g0
(g9
g2
Ntp185
Rp186
(dp187
g13
I01
sg14
F-1.4032620356615564
sg15
g184
sbssS'nodes'
p188
(dp189
I0
g0
(cneat.genes
DefaultNodeGene
p190
g2
Ntp191
Rp192
(dp193
S'activation'
p194
S'sigmoid'
p195
sS'bias'
p196
F-0.5487448156613013
sS'response'
p197
F1.0
sg15
I0
sS'aggregation'
p198
S'sum'
p199
sbsI17
g0
(g190
g2
Ntp200
Rp201
(dp202
g194
g195
sg196
F-0.26346281231540064
sg197
F1.0
sg15
I17
sg198
g199
sbssg15
I17
sS'fitness'
p203
I-1000
sb.