ccopy_reg
_reconstructor
p0
(cneat.genome
DefaultGenome
p1
c__builtin__
object
p2
Ntp3
Rp4
(dp5
S'connections'
p6
(dp7
(I-37
I0
tp8
g0
(cneat.genes
DefaultConnectionGene
p9
g2
Ntp10
Rp11
(dp12
S'enabled'
p13
I01
sS'weight'
p14
F-0.6564373625235242
sS'key'
p15
g8
sbs(I-25
I0
tp16
g0
(g9
g2
Ntp17
Rp18
(dp19
g13
I01
sg14
F-1.597990425466084
sg15
g16
sbs(I-34
I0
tp20
g0
(g9
g2
Ntp21
Rp22
(dp23
g13
I01
sg14
F-2.977739264214052
sg15
g20
sbs(I-6
I0
tp24
g0
(g9
g2
Ntp25
Rp26
(dp27
g13
I00
sg14
F1.8506113088937195
sg15
g24
sbs(I-15
I0
tp28
g0
(g9
g2
Ntp29
Rp30
(dp31
g13
I01
sg14
F0.6957405674488344
sg15
g28
sbs(I-24
I0
tp32
g0
(g9
g2
Ntp33
Rp34
(dp35
g13
I01
sg14
F-2.554402145622338
sg15
g32
sbs(I-26
I0
tp36
g0
(g9
g2
Ntp37
Rp38
(dp39
g13
I01
sg14
F0.3842914409112917
sg15
g36
sbs(I-36
I0
tp40
g0
(g9
g2
Ntp41
Rp42
(dp43
g13
I01
sg14
F0.1569982773114037
sg15
g40
sbs(I-12
I0
tp44
g0
(g9
g2
Ntp45
Rp46
(dp47
g13
I01
sg14
F-0.8304114185845659
sg15
g44
sbs(I-21
I0
tp48
g0
(g9
g2
Ntp49
Rp50
(dp51
g13
I01
sg14
F0.7512281941205627
sg15
g48
sbs(I-7
I0
tp52
g0
(g9
g2
Ntp53
Rp54
(dp55
g13
I01
sg14
F0.5641014907925284
sg15
g52
sbs(I-6
I30
tp56
g0
(g9
g2
Ntp57
Rp58
(dp59
g13
I01
sg14
F-0.03358554588037793
sg15
g56
sbs(I-41
I0
tp60
g0
(g9
g2
Ntp61
Rp62
(dp63
g13
I01
sg14
F-2.0564503406418115
sg15
g60
sbs(I-39
I0
tp64
g0
(g9
g2
Ntp65
Rp66
(dp67
g13
I01
sg14
F0.803711061713696
sg15
g64
sbs(I-27
I0
tp68
g0
(g9
g2
Ntp69
Rp70
(dp71
g13
I01
sg14
F-0.7873398413982441
sg15
g68
sbs(I-38
I0
tp72
g0
(g9
g2
Ntp73
Rp74
(dp75
g13
I01
sg14
F0.10850051752955553
sg15
g72
sbs(I-13
I0
tp76
g0
(g9
g2
Ntp77
Rp78
(dp79
g13
I01
sg14
F0.9255809513640152
sg15
g76
sbs(I-9
I0
tp80
g0
(g9
g2
Ntp81
Rp82
(dp83
g13
I01
sg14
F-1.5202015540919291
sg15
g80
sbs(I-8
I0
tp84
g0
(g9
g2
Ntp85
Rp86
(dp87
g13
I01
sg14
F3.032550630487
sg15
g84
sbs(I-42
I0
tp88
g0
(g9
g2
Ntp89
Rp90
(dp91
g13
I01
sg14
F2.0788594106414515
sg15
g88
sbs(I30
I0
tp92
g0
(g9
g2
Ntp93
Rp94
(dp95
g13
I01
sg14
F1.4192578333001418
sg15
g92
sbssS'nodes'
p96
(dp97
I0
g0
(cneat.genes
DefaultNodeGene
p98
g2
Ntp99
Rp100
(dp101
S'activation'
p102
S'sigmoid'
p103
sS'bias'
p104
F-0.6462059056465999
sS'response'
p105
F1.0
sg15
I0
sS'aggregation'
p106
S'sum'
p107
sbsI30
g0
(g98
g2
Ntp108
Rp109
(dp110
g102
g103
sg104
F0.7160397325939233
sg105
F1.0
sg15
I30
sg106
g107
sbssg15
I93
sS'fitness'
p111
I-1000
sb.