ccopy_reg
_reconstructor
p0
(cneat.genome
DefaultGenome
p1
c__builtin__
object
p2
Ntp3
Rp4
(dp5
S'connections'
p6
(dp7
(I-14
I23
tp8
g0
(cneat.genes
DefaultConnectionGene
p9
g2
Ntp10
Rp11
(dp12
S'enabled'
p13
I01
sS'weight'
p14
F1.4413305658981637
sS'key'
p15
g8
sbs(I-23
I0
tp16
g0
(g9
g2
Ntp17
Rp18
(dp19
g13
I01
sg14
F-1.811418763043394
sg15
g16
sbs(I-26
I7
tp20
g0
(g9
g2
Ntp21
Rp22
(dp23
g13
I01
sg14
F-0.8652517890947885
sg15
g20
sbs(I-1
I0
tp24
g0
(g9
g2
Ntp25
Rp26
(dp27
g13
I01
sg14
F0.8013984404880115
sg15
g24
sbs(I-38
I0
tp28
g0
(g9
g2
Ntp29
Rp30
(dp31
g13
I01
sg14
F-0.7928839444778547
sg15
g28
sbs(I-17
I0
tp32
g0
(g9
g2
Ntp33
Rp34
(dp35
g13
I01
sg14
F-1.070488707760225
sg15
g32
sbs(I-39
I7
tp36
g0
(g9
g2
Ntp37
Rp38
(dp39
g13
I01
sg14
F-2.0322032869616553
sg15
g36
sbs(I-40
I0
tp40
g0
(g9
g2
Ntp41
Rp42
(dp43
g13
I01
sg14
F0.14372834010609764
sg15
g40
sbs(I-7
I0
tp44
g0
(g9
g2
Ntp45
Rp46
(dp47
g13
I01
sg14
F-0.06754949162783336
sg15
g44
sbs(I-19
I7
tp48
g0
(g9
g2
Ntp49
Rp50
(dp51
g13
I01
sg14
F-0.5268767742944843
sg15
g48
sbs(I-10
I7
tp52
g0
(g9
g2
Ntp53
Rp54
(dp55
g13
I01
sg14
F-1.1847375913638416
sg15
g52
sbs(I-27
I0
tp56
g0
(g9
g2
Ntp57
Rp58
(dp59
g13
I01
sg14
F0.3229609632983496
sg15
g56
sbs(I-6
I7
tp60
g0
(g9
g2
Ntp61
Rp62
(dp63
g13
I01
sg14
F-0.2862201556555107
sg15
g60
sbs(I-36
I7
tp64
g0
(g9
g2
Ntp65
Rp66
(dp67
g13
I01
sg14
F-0.3045786178427145
sg15
g64
sbs(I23
I7
tp68
g0
(g9
g2
Ntp69
Rp70
(dp71
g13
I01
sg14
F0.37009673124657916
sg15
g68
sbs(I-37
I0
tp72
g0
(g9
g2
Ntp73
Rp74
(dp75
g13
I01
sg14
F-0.580171868882753
sg15
g72
sbs(I-3
I7
tp76
g0
(g9
g2
Ntp77
Rp78
(dp79
g13
I01
sg14
F-0.3106626248683527
sg15
g76
sbs(I-11
I0
tp80
g0
(g9
g2
Ntp81
Rp82
(dp83
g13
I01
sg14
F-0.6495791160138557
sg15
g80
sbs(I-2
I7
tp84
g0
(g9
g2
Ntp85
Rp86
(dp87
g13
I01
sg14
F-1.2798921634737148
sg15
g84
sbs(I-7
I7
tp88
g0
(g9
g2
Ntp89
Rp90
(dp91
g13
I01
sg14
F-1.0898068524185565
sg15
g88
sbs(I-21
I0
tp92
g0
(g9
g2
Ntp93
Rp94
(dp95
g13
I01
sg14
F0.2855366476034617
sg15
g92
sbs(I-41
I0
tp96
g0
(g9
g2
Ntp97
Rp98
(dp99
g13
I00
sg14
F-2.071107563771527
sg15
g96
sbs(I-17
I7
tp100
g0
(g9
g2
Ntp101
Rp102
(dp103
g13
I01
sg14
F0.2415095794161558
sg15
g100
sbs(I-36
I0
tp104
g0
(g9
g2
Ntp105
Rp106
(dp107
g13
I01
sg14
F0.8641479455859604
sg15
g104
sbs(I-14
I21
tp108
g0
(g9
g2
Ntp109
Rp110
(dp111
g13
I00
sg14
F2.1236720297813387
sg15
g108
sbs(I-34
I7
tp112
g0
(g9
g2
Ntp113
Rp114
(dp115
g13
I01
sg14
F-0.6384292185930505
sg15
g112
sbs(I-30
I7
tp116
g0
(g9
g2
Ntp117
Rp118
(dp119
g13
I01
sg14
F1.8548558077787436
sg15
g116
sbs(I-21
I7
tp120
g0
(g9
g2
Ntp121
Rp122
(dp123
g13
I01
sg14
F1.008625197577925
sg15
g120
sbs(I-20
I0
tp124
g0
(g9
g2
Ntp125
Rp126
(dp127
g13
I01
sg14
F0.06916610770284176
sg15
g124
sbs(I-14
I7
tp128
g0
(g9
g2
Ntp129
Rp130
(dp131
g13
I00
sg14
F0.4704953139285686
sg15
g128
sbs(I-5
I7
tp132
g0
(g9
g2
Ntp133
Rp134
(dp135
g13
I01
sg14
F-0.7316444795383624
sg15
g132
sbs(I-4
I0
tp136
g0
(g9
g2
Ntp137
Rp138
(dp139
g13
I01
sg14
F-0.6004202684461255
sg15
g136
sbs(I-12
I0
tp140
g0
(g9
g2
Ntp141
Rp142
(dp143
g13
I01
sg14
F2.2303303247342354
sg15
g140
sbs(I-1
I7
tp144
g0
(g9
g2
Ntp145
Rp146
(dp147
g13
I01
sg14
F2.977015826041291
sg15
g144
sbs(I-31
I0
tp148
g0
(g9
g2
Ntp149
Rp150
(dp151
g13
I01
sg14
F-0.033391717889992734
sg15
g148
sbs(I-19
I0
tp152
g0
(g9
g2
Ntp153
Rp154
(dp155
g13
I01
sg14
F0.42173926145781826
sg15
g152
sbs(I-41
I7
tp156
g0
(g9
g2
Ntp157
Rp158
(dp159
g13
I01
sg14
F2.4830576546686567
sg15
g156
sbs(I-34
I0
tp160
g0
(g9
g2
Ntp161
Rp162
(dp163
g13
I01
sg14
F0.3260069382267585
sg15
g160
sbs(I-15
I7
tp164
g0
(g9
g2
Ntp165
Rp166
(dp167
g13
I01
sg14
F-0.7002043848989358
sg15
g164
sbs(I-29
I0
tp168
g0
(g9
g2
Ntp169
Rp170
(dp171
g13
I01
sg14
F-1.4906444122145783
sg15
g168
sbs(I-24
I0
tp172
g0
(g9
g2
Ntp173
Rp174
(dp175
g13
I01
sg14
F-1.0887590955448487
sg15
g172
sbs(I-25
I7
tp176
g0
(g9
g2
Ntp177
Rp178
(dp179
g13
I01
sg14
F0.11832718542220905
sg15
g176
sbs(I-3
I0
tp180
g0
(g9
g2
Ntp181
Rp182
(dp183
g13
I01
sg14
F-1.2381379452960317
sg15
g180
sbs(I-39
I0
tp184
g0
(g9
g2
Ntp185
Rp186
(dp187
g13
I01
sg14
F1.5259214007129502
sg15
g184
sbs(I-29
I7
tp188
g0
(g9
g2
Ntp189
Rp190
(dp191
g13
I01
sg14
F-0.861477106007956
sg15
g188
sbs(I21
I7
tp192
g0
(g9
g2
Ntp193
Rp194
(dp195
g13
I01
sg14
F-0.42245658700949873
sg15
g192
sbs(I-9
I7
tp196
g0
(g9
g2
Ntp197
Rp198
(dp199
g13
I01
sg14
F1.8320035185188206
sg15
g196
sbssS'nodes'
p200
(dp201
I0
g0
(cneat.genes
DefaultNodeGene
p202
g2
Ntp203
Rp204
(dp205
S'activation'
p206
S'sigmoid'
p207
sS'bias'
p208
F-0.95577562562832
sS'response'
p209
F1.0
sg15
I0
sS'aggregation'
p210
S'sum'
p211
sbsI7
g0
(g202
g2
Ntp212
Rp213
(dp214
g206
g207
sg208
F1.5060700983461492
sg209
F1.0
sg15
I7
sg210
g211
sbsI21
g0
(g202
g2
Ntp215
Rp216
(dp217
g206
g207
sg208
F-1.604539761135185
sg209
F1.0
sg15
I21
sg210
g211
sbsI23
g0
(g202
g2
Ntp218
Rp219
(dp220
g206
g207
sg208
F0.04070885216463377
sg209
F1.0
sg15
I23
sg210
g211
sbssg15
I69
sS'fitness'
p221
F18.2
sb.