ccopy_reg
_reconstructor
p0
(cneat.genome
DefaultGenome
p1
c__builtin__
object
p2
Ntp3
Rp4
(dp5
S'connections'
p6
(dp7
(I-23
I0
tp8
g0
(cneat.genes
DefaultConnectionGene
p9
g2
Ntp10
Rp11
(dp12
S'enabled'
p13
I01
sS'weight'
p14
F-0.056144884932467054
sS'key'
p15
g8
sbs(I-26
I7
tp16
g0
(g9
g2
Ntp17
Rp18
(dp19
g13
I01
sg14
F0.44906207366909534
sg15
g16
sbs(I-1
I0
tp20
g0
(g9
g2
Ntp21
Rp22
(dp23
g13
I01
sg14
F-0.2395515404485675
sg15
g20
sbs(I-38
I0
tp24
g0
(g9
g2
Ntp25
Rp26
(dp27
g13
I01
sg14
F-0.8105105961561152
sg15
g24
sbs(I-17
I0
tp28
g0
(g9
g2
Ntp29
Rp30
(dp31
g13
I01
sg14
F-1.6814954460984177
sg15
g28
sbs(I-39
I7
tp32
g0
(g9
g2
Ntp33
Rp34
(dp35
g13
I01
sg14
F-2.2906377251325183
sg15
g32
sbs(I-40
I0
tp36
g0
(g9
g2
Ntp37
Rp38
(dp39
g13
I01
sg14
F-0.9089654433582872
sg15
g36
sbs(I-7
I0
tp40
g0
(g9
g2
Ntp41
Rp42
(dp43
g13
I01
sg14
F-0.28356060195745947
sg15
g40
sbs(I-19
I7
tp44
g0
(g9
g2
Ntp45
Rp46
(dp47
g13
I01
sg14
F0.1941191791556327
sg15
g44
sbs(I-10
I7
tp48
g0
(g9
g2
Ntp49
Rp50
(dp51
g13
I01
sg14
F-2.347304792147124
sg15
g48
sbs(I-27
I0
tp52
g0
(g9
g2
Ntp53
Rp54
(dp55
g13
I01
sg14
F0.9028790458185523
sg15
g52
sbs(I-6
I7
tp56
g0
(g9
g2
Ntp57
Rp58
(dp59
g13
I01
sg14
F-0.7290869175889864
sg15
g56
sbs(I-36
I7
tp60
g0
(g9
g2
Ntp61
Rp62
(dp63
g13
I01
sg14
F1.7265926022872842
sg15
g60
sbs(I-23
I7
tp64
g0
(g9
g2
Ntp65
Rp66
(dp67
g13
I01
sg14
F0.33581214333703296
sg15
g64
sbs(I-37
I0
tp68
g0
(g9
g2
Ntp69
Rp70
(dp71
g13
I01
sg14
F-2.1466252382565174
sg15
g68
sbs(I-3
I7
tp72
g0
(g9
g2
Ntp73
Rp74
(dp75
g13
I01
sg14
F-0.18382333334320483
sg15
g72
sbs(I-11
I0
tp76
g0
(g9
g2
Ntp77
Rp78
(dp79
g13
I01
sg14
F0.8159818998505413
sg15
g76
sbs(I-2
I7
tp80
g0
(g9
g2
Ntp81
Rp82
(dp83
g13
I01
sg14
F-0.8357124742876066
sg15
g80
sbs(I-7
I7
tp84
g0
(g9
g2
Ntp85
Rp86
(dp87
g13
I01
sg14
F1.6078744846347188
sg15
g84
sbs(I-21
I0
tp88
g0
(g9
g2
Ntp89
Rp90
(dp91
g13
I01
sg14
F0.6443818099024325
sg15
g88
sbs(I-41
I0
tp92
g0
(g9
g2
Ntp93
Rp94
(dp95
g13
I01
sg14
F-2.29694484869641
sg15
g92
sbs(I-17
I7
tp96
g0
(g9
g2
Ntp97
Rp98
(dp99
g13
I01
sg14
F-0.5950905223044545
sg15
g96
sbs(I-36
I0
tp100
g0
(g9
g2
Ntp101
Rp102
(dp103
g13
I01
sg14
F1.8169431952242667
sg15
g100
sbs(I-31
I0
tp104
g0
(g9
g2
Ntp105
Rp106
(dp107
g13
I01
sg14
F0.03996589074034482
sg15
g104
sbs(I-34
I7
tp108
g0
(g9
g2
Ntp109
Rp110
(dp111
g13
I01
sg14
F-0.014472415121802511
sg15
g108
sbs(I-30
I7
tp112
g0
(g9
g2
Ntp113
Rp114
(dp115
g13
I01
sg14
F0.9626853582860719
sg15
g112
sbs(I-21
I7
tp116
g0
(g9
g2
Ntp117
Rp118
(dp119
g13
I01
sg14
F-0.267185235506918
sg15
g116
sbs(I-20
I0
tp120
g0
(g9
g2
Ntp121
Rp122
(dp123
g13
I01
sg14
F0.7824290742744651
sg15
g120
sbs(I-14
I7
tp124
g0
(g9
g2
Ntp125
Rp126
(dp127
g13
I01
sg14
F0.15819664834227404
sg15
g124
sbs(I-5
I7
tp128
g0
(g9
g2
Ntp129
Rp130
(dp131
g13
I01
sg14
F-0.8606555679920209
sg15
g128
sbs(I-4
I0
tp132
g0
(g9
g2
Ntp133
Rp134
(dp135
g13
I01
sg14
F0.5203305309329769
sg15
g132
sbs(I-12
I0
tp136
g0
(g9
g2
Ntp137
Rp138
(dp139
g13
I01
sg14
F0.908835311294517
sg15
g136
sbs(I-1
I7
tp140
g0
(g9
g2
Ntp141
Rp142
(dp143
g13
I01
sg14
F-3.27110985781964
sg15
g140
sbs(I-41
I7
tp144
g0
(g9
g2
Ntp145
Rp146
(dp147
g13
I01
sg14
F1.0284248498830073
sg15
g144
sbs(I-19
I0
tp148
g0
(g9
g2
Ntp149
Rp150
(dp151
g13
I01
sg14
F0.2355637394489799
sg15
g148
sbs(I-34
I0
tp152
g0
(g9
g2
Ntp153
Rp154
(dp155
g13
I01
sg14
F0.4110909116848291
sg15
g152
sbs(I-15
I7
tp156
g0
(g9
g2
Ntp157
Rp158
(dp159
g13
I01
sg14
F-0.8549313809238034
sg15
g156
sbs(I-29
I0
tp160
g0
(g9
g2
Ntp161
Rp162
(dp163
g13
I01
sg14
F-2.662768544050681
sg15
g160
sbs(I-24
I0
tp164
g0
(g9
g2
Ntp165
Rp166
(dp167
g13
I01
sg14
F0.14773109437415363
sg15
g164
sbs(I-25
I7
tp168
g0
(g9
g2
Ntp169
Rp170
(dp171
g13
I01
sg14
F0.6541031409575786
sg15
g168
sbs(I-3
I0
tp172
g0
(g9
g2
Ntp173
Rp174
(dp175
g13
I01
sg14
F0.7525055613866974
sg15
g172
sbs(I-39
I0
tp176
g0
(g9
g2
Ntp177
Rp178
(dp179
g13
I01
sg14
F-0.27652848497024846
sg15
g176
sbs(I-29
I7
tp180
g0
(g9
g2
Ntp181
Rp182
(dp183
g13
I01
sg14
F-0.010565476264493778
sg15
g180
sbs(I-9
I7
tp184
g0
(g9
g2
Ntp185
Rp186
(dp187
g13
I01
sg14
F1.0503908456825806
sg15
g184
sbssS'nodes'
p188
(dp189
I0
g0
(cneat.genes
DefaultNodeGene
p190
g2
Ntp191
Rp192
(dp193
S'activation'
p194
S'sigmoid'
p195
sS'bias'
p196
F0.5929975599521475
sS'response'
p197
F1.0
sg15
I0
sS'aggregation'
p198
S'sum'
p199
sbsI7
g0
(g190
g2
Ntp200
Rp201
(dp202
g194
g195
sg196
F2.54689074520451
sg197
F1.0
sg15
I7
sg198
g199
sbssg15
I45
sS'fitness'
p203
I-1000
sb.