ccopy_reg
_reconstructor
p0
(cneat.genome
DefaultGenome
p1
c__builtin__
object
p2
Ntp3
Rp4
(dp5
S'connections'
p6
(dp7
(I-14
I23
tp8
g0
(cneat.genes
DefaultConnectionGene
p9
g2
Ntp10
Rp11
(dp12
S'enabled'
p13
I01
sS'weight'
p14
F0.8843264777959893
sS'key'
p15
g8
sbs(I-23
I0
tp16
g0
(g9
g2
Ntp17
Rp18
(dp19
g13
I01
sg14
F-1.9776158279503753
sg15
g16
sbs(I-26
I7
tp20
g0
(g9
g2
Ntp21
Rp22
(dp23
g13
I01
sg14
F0.4361197261994085
sg15
g20
sbs(I-1
I0
tp24
g0
(g9
g2
Ntp25
Rp26
(dp27
g13
I01
sg14
F1.3238473120105465
sg15
g24
sbs(I-38
I0
tp28
g0
(g9
g2
Ntp29
Rp30
(dp31
g13
I01
sg14
F-0.9343160543237413
sg15
g28
sbs(I-17
I0
tp32
g0
(g9
g2
Ntp33
Rp34
(dp35
g13
I01
sg14
F-0.8160968270767635
sg15
g32
sbs(I-39
I7
tp36
g0
(g9
g2
Ntp37
Rp38
(dp39
g13
I01
sg14
F-2.0322032869616553
sg15
g36
sbs(I-7
I0
tp40
g0
(g9
g2
Ntp41
Rp42
(dp43
g13
I01
sg14
F1.1753176427340644
sg15
g40
sbs(I-19
I7
tp44
g0
(g9
g2
Ntp45
Rp46
(dp47
g13
I01
sg14
F-0.39789608723928427
sg15
g44
sbs(I-10
I7
tp48
g0
(g9
g2
Ntp49
Rp50
(dp51
g13
I01
sg14
F-0.9730388824203521
sg15
g48
sbs(I-27
I0
tp52
g0
(g9
g2
Ntp53
Rp54
(dp55
g13
I01
sg14
F0.47123056710796674
sg15
g52
sbs(I-6
I7
tp56
g0
(g9
g2
Ntp57
Rp58
(dp59
g13
I01
sg14
F0.04517630417212763
sg15
g56
sbs(I-36
I7
tp60
g0
(g9
g2
Ntp61
Rp62
(dp63
g13
I01
sg14
F-0.3277446000460175
sg15
g60
sbs(I23
I7
tp64
g0
(g9
g2
Ntp65
Rp66
(dp67
g13
I01
sg14
F1.0116822176159008
sg15
g64
sbs(I-37
I0
tp68
g0
(g9
g2
Ntp69
Rp70
(dp71
g13
I01
sg14
F-0.22102356125855416
sg15
g68
sbs(I-3
I7
tp72
g0
(g9
g2
Ntp73
Rp74
(dp75
g13
I01
sg14
F0.13696125883269755
sg15
g72
sbs(I-11
I0
tp76
g0
(g9
g2
Ntp77
Rp78
(dp79
g13
I01
sg14
F-0.8150981590541533
sg15
g76
sbs(I-1
I7
tp80
g0
(g9
g2
Ntp81
Rp82
(dp83
g13
I01
sg14
F2.2769513342673404
sg15
g80
sbs(I-12
I0
tp84
g0
(g9
g2
Ntp85
Rp86
(dp87
g13
I01
sg14
F2.5657648845944525
sg15
g84
sbs(I-7
I7
tp88
g0
(g9
g2
Ntp89
Rp90
(dp91
g13
I01
sg14
F-1.37658866342285
sg15
g88
sbs(I-21
I0
tp92
g0
(g9
g2
Ntp93
Rp94
(dp95
g13
I01
sg14
F-0.5492328675023641
sg15
g92
sbs(I-41
I0
tp96
g0
(g9
g2
Ntp97
Rp98
(dp99
g13
I00
sg14
F-2.063925983098754
sg15
g96
sbs(I-17
I7
tp100
g0
(g9
g2
Ntp101
Rp102
(dp103
g13
I01
sg14
F-0.021731856533845795
sg15
g100
sbs(I-36
I0
tp104
g0
(g9
g2
Ntp105
Rp106
(dp107
g13
I01
sg14
F1.1094316964077078
sg15
g104
sbs(I-14
I21
tp108
g0
(g9
g2
Ntp109
Rp110
(dp111
g13
I00
sg14
F2.23600860104687
sg15
g108
sbs(I-34
I7
tp112
g0
(g9
g2
Ntp113
Rp114
(dp115
g13
I01
sg14
F-0.10758117527011224
sg15
g112
sbs(I-30
I7
tp116
g0
(g9
g2
Ntp117
Rp118
(dp119
g13
I01
sg14
F2.5786370209126193
sg15
g116
sbs(I-21
I7
tp120
g0
(g9
g2
Ntp121
Rp122
(dp123
g13
I01
sg14
F0.4961969490399961
sg15
g120
sbs(I-25
I0
tp124
g0
(g9
g2
Ntp125
Rp126
(dp127
g13
I00
sg14
F0.4642861111741446
sg15
g124
sbs(I-20
I0
tp128
g0
(g9
g2
Ntp129
Rp130
(dp131
g13
I01
sg14
F0.06916610770284176
sg15
g128
sbs(I-14
I7
tp132
g0
(g9
g2
Ntp133
Rp134
(dp135
g13
I00
sg14
F0.6314338210748023
sg15
g132
sbs(I-5
I7
tp136
g0
(g9
g2
Ntp137
Rp138
(dp139
g13
I01
sg14
F-0.19154385123077877
sg15
g136
sbs(I-4
I0
tp140
g0
(g9
g2
Ntp141
Rp142
(dp143
g13
I01
sg14
F-0.6064291430423465
sg15
g140
sbs(I-40
I0
tp144
g0
(g9
g2
Ntp145
Rp146
(dp147
g13
I01
sg14
F0.17281188773867556
sg15
g144
sbs(I-2
I7
tp148
g0
(g9
g2
Ntp149
Rp150
(dp151
g13
I01
sg14
F-1.6081056545817978
sg15
g148
sbs(I-31
I0
tp152
g0
(g9
g2
Ntp153
Rp154
(dp155
g13
I01
sg14
F1.8351104747538936
sg15
g152
sbs(I-19
I0
tp156
g0
(g9
g2
Ntp157
Rp158
(dp159
g13
I01
sg14
F0.8721533095752938
sg15
g156
sbs(I-41
I7
tp160
g0
(g9
g2
Ntp161
Rp162
(dp163
g13
I01
sg14
F2.724284697084088
sg15
g160
sbs(I-34
I0
tp164
g0
(g9
g2
Ntp165
Rp166
(dp167
g13
I01
sg14
F0.6303120708456296
sg15
g164
sbs(I-15
I7
tp168
g0
(g9
g2
Ntp169
Rp170
(dp171
g13
I01
sg14
F-0.39848982519168924
sg15
g168
sbs(I-29
I0
tp172
g0
(g9
g2
Ntp173
Rp174
(dp175
g13
I01
sg14
F-1.8492154983887097
sg15
g172
sbs(I-24
I0
tp176
g0
(g9
g2
Ntp177
Rp178
(dp179
g13
I01
sg14
F-1.349693002011821
sg15
g176
sbs(I-25
I7
tp180
g0
(g9
g2
Ntp181
Rp182
(dp183
g13
I01
sg14
F0.18269241660027036
sg15
g180
sbs(I-3
I0
tp184
g0
(g9
g2
Ntp185
Rp186
(dp187
g13
I01
sg14
F-1.396492287589574
sg15
g184
sbs(I-39
I0
tp188
g0
(g9
g2
Ntp189
Rp190
(dp191
g13
I01
sg14
F1.4545914914478342
sg15
g188
sbs(I-29
I7
tp192
g0
(g9
g2
Ntp193
Rp194
(dp195
g13
I01
sg14
F-0.3279420820105853
sg15
g192
sbs(I21
I7
tp196
g0
(g9
g2
Ntp197
Rp198
(dp199
g13
I01
sg14
F0.03413862381250793
sg15
g196
sbs(I-9
I7
tp200
g0
(g9
g2
Ntp201
Rp202
(dp203
g13
I01
sg14
F0.2674662697950959
sg15
g200
sbssS'nodes'
p204
(dp205
I0
g0
(cneat.genes
DefaultNodeGene
p206
g2
Ntp207
Rp208
(dp209
S'activation'
p210
S'sigmoid'
p211
sS'bias'
p212
F-1.16583327417923
sS'response'
p213
F1.0
sg15
I0
sS'aggregation'
p214
S'sum'
p215
sbsI23
g0
(g206
g2
Ntp216
Rp217
(dp218
g210
g211
sg212
F-2.6788082417219674
sg213
F1.0
sg15
I23
sg214
g215
sbsI21
g0
(g206
g2
Ntp219
Rp220
(dp221
g210
g211
sg212
F-1.586619416724969
sg213
F1.0
sg15
I21
sg214
g215
sbsI7
g0
(g206
g2
Ntp222
Rp223
(dp224
g210
g211
sg212
F0.707580499204904
sg213
F1.0
sg15
I7
sg214
g215
sbssg15
I87
sS'fitness'
p225
F17.7
sb.