ccopy_reg
_reconstructor
p0
(cneat.genome
DefaultGenome
p1
c__builtin__
object
p2
Ntp3
Rp4
(dp5
S'connections'
p6
(dp7
(I-3
I8
tp8
g0
(cneat.genes
DefaultConnectionGene
p9
g2
Ntp10
Rp11
(dp12
S'enabled'
p13
I01
sS'weight'
p14
F0.332297103440196
sS'key'
p15
g8
sbs(I-38
I0
tp16
g0
(g9
g2
Ntp17
Rp18
(dp19
g13
I01
sg14
F-2.1090650087180904
sg15
g16
sbs(I-11
I8
tp20
g0
(g9
g2
Ntp21
Rp22
(dp23
g13
I01
sg14
F1.1444093246849585
sg15
g20
sbs(I-12
I0
tp24
g0
(g9
g2
Ntp25
Rp26
(dp27
g13
I01
sg14
F-1.361373417367687
sg15
g24
sbs(I-7
I0
tp28
g0
(g9
g2
Ntp29
Rp30
(dp31
g13
I01
sg14
F0.011221401898078277
sg15
g28
sbs(I-27
I0
tp32
g0
(g9
g2
Ntp33
Rp34
(dp35
g13
I01
sg14
F1.525508055146964
sg15
g32
sbs(I24
I0
tp36
g0
(g9
g2
Ntp37
Rp38
(dp39
g13
I01
sg14
F0.9094986821638438
sg15
g36
sbs(I-42
I0
tp40
g0
(g9
g2
Ntp41
Rp42
(dp43
g13
I01
sg14
F3.0361004544436874
sg15
g40
sbs(I-37
I0
tp44
g0
(g9
g2
Ntp45
Rp46
(dp47
g13
I01
sg14
F-0.7757142613550564
sg15
g44
sbs(I-6
I0
tp48
g0
(g9
g2
Ntp49
Rp50
(dp51
g13
I01
sg14
F3.726435040988903
sg15
g48
sbs(I-26
I0
tp52
g0
(g9
g2
Ntp53
Rp54
(dp55
g13
I01
sg14
F-0.4577334481789905
sg15
g52
sbs(I-21
I0
tp56
g0
(g9
g2
Ntp57
Rp58
(dp59
g13
I01
sg14
F0.0128506246344076
sg15
g56
sbs(I-41
I0
tp60
g0
(g9
g2
Ntp61
Rp62
(dp63
g13
I01
sg14
F-0.8150864357726932
sg15
g60
sbs(I-42
I8
tp64
g0
(g9
g2
Ntp65
Rp66
(dp67
g13
I01
sg14
F1.0210740360277617
sg15
g64
sbs(I-36
I0
tp68
g0
(g9
g2
Ntp69
Rp70
(dp71
g13
I01
sg14
F-1.6293616365467976
sg15
g68
sbs(I-32
I8
tp72
g0
(g9
g2
Ntp73
Rp74
(dp75
g13
I01
sg14
F-1.3481700179003253
sg15
g72
sbs(I-9
I24
tp76
g0
(g9
g2
Ntp77
Rp78
(dp79
g13
I01
sg14
F1.5983640018045495
sg15
g76
sbs(I-25
I0
tp80
g0
(g9
g2
Ntp81
Rp82
(dp83
g13
I01
sg14
F-2.700514263481085
sg15
g80
sbs(I-26
I8
tp84
g0
(g9
g2
Ntp85
Rp86
(dp87
g13
I01
sg14
F0.6129616603591812
sg15
g84
sbs(I-21
I8
tp88
g0
(g9
g2
Ntp89
Rp90
(dp91
g13
I01
sg14
F2.335655599989593
sg15
g88
sbs(I-15
I0
tp92
g0
(g9
g2
Ntp93
Rp94
(dp95
g13
I01
sg14
F1.4139065963603306
sg15
g92
sbs(I-16
I8
tp96
g0
(g9
g2
Ntp97
Rp98
(dp99
g13
I01
sg14
F-0.11469539970647424
sg15
g96
sbs(I-29
I8
tp100
g0
(g9
g2
Ntp101
Rp102
(dp103
g13
I01
sg14
F1.0033378945139837
sg15
g100
sbs(I-24
I8
tp104
g0
(g9
g2
Ntp105
Rp106
(dp107
g13
I01
sg14
F-0.03698991812199448
sg15
g104
sbs(I-9
I0
tp108
g0
(g9
g2
Ntp109
Rp110
(dp111
g13
I00
sg14
F-1.681306729475782
sg15
g108
sbs(I-5
I8
tp112
g0
(g9
g2
Ntp113
Rp114
(dp115
g13
I01
sg14
F2.2797606695087156
sg15
g112
sbs(I-25
I8
tp116
g0
(g9
g2
Ntp117
Rp118
(dp119
g13
I01
sg14
F2.2377542531289336
sg15
g116
sbs(I-18
I8
tp120
g0
(g9
g2
Ntp121
Rp122
(dp123
g13
I01
sg14
F-0.944102144011324
sg15
g120
sbs(I-20
I8
tp124
g0
(g9
g2
Ntp125
Rp126
(dp127
g13
I01
sg14
F1.4756544770824231
sg15
g124
sbs(I-13
I8
tp128
g0
(g9
g2
Ntp129
Rp130
(dp131
g13
I01
sg14
F-2.04756833258589
sg15
g128
sbs(I-15
I8
tp132
g0
(g9
g2
Ntp133
Rp134
(dp135
g13
I01
sg14
F0.9935569390165034
sg15
g132
sbs(I-33
I8
tp136
g0
(g9
g2
Ntp137
Rp138
(dp139
g13
I01
sg14
F-0.7158751954024938
sg15
g136
sbs(I-34
I0
tp140
g0
(g9
g2
Ntp141
Rp142
(dp143
g13
I01
sg14
F-0.4077916473591954
sg15
g140
sbs(I-28
I8
tp144
g0
(g9
g2
Ntp145
Rp146
(dp147
g13
I01
sg14
F2.0374792437718248
sg15
g144
sbs(I-30
I8
tp148
g0
(g9
g2
Ntp149
Rp150
(dp151
g13
I01
sg14
F-1.3220535639178033
sg15
g148
sbs(I-23
I8
tp152
g0
(g9
g2
Ntp153
Rp154
(dp155
g13
I01
sg14
F-1.034376120257793
sg15
g152
sbs(I-24
I0
tp156
g0
(g9
g2
Ntp157
Rp158
(dp159
g13
I01
sg14
F-0.627601076507718
sg15
g156
sbs(I-9
I8
tp160
g0
(g9
g2
Ntp161
Rp162
(dp163
g13
I01
sg14
F1.6851894252455928
sg15
g160
sbs(I-43
I8
tp164
g0
(g9
g2
Ntp165
Rp166
(dp167
g13
I01
sg14
F-0.018284970340592527
sg15
g164
sbs(I-4
I8
tp168
g0
(g9
g2
Ntp169
Rp170
(dp171
g13
I01
sg14
F0.4738375849504355
sg15
g168
sbs(I-39
I0
tp172
g0
(g9
g2
Ntp173
Rp174
(dp175
g13
I01
sg14
F0.28814154080818
sg15
g172
sbs(I-12
I8
tp176
g0
(g9
g2
Ntp177
Rp178
(dp179
g13
I01
sg14
F-0.4897366781106299
sg15
g176
sbs(I-13
I0
tp180
g0
(g9
g2
Ntp181
Rp182
(dp183
g13
I01
sg14
F0.5318231846278282
sg15
g180
sbs(I-7
I8
tp184
g0
(g9
g2
Ntp185
Rp186
(dp187
g13
I01
sg14
F1.0428233948589265
sg15
g184
sbs(I-8
I0
tp188
g0
(g9
g2
Ntp189
Rp190
(dp191
g13
I01
sg14
F0.28726938309368166
sg15
g188
sbs(I-27
I8
tp192
g0
(g9
g2
Ntp193
Rp194
(dp195
g13
I01
sg14
F-1.4397086474607637
sg15
g192
sbssS'nodes'
p196
(dp197
I0
g0
(cneat.genes
DefaultNodeGene
p198
g2
Ntp199
Rp200
(dp201
S'activation'
p202
S'sigmoid'
p203
sS'bias'
p204
F-0.2090503739260538
sS'response'
p205
F1.0
sg15
I0
sS'aggregation'
p206
S'sum'
p207
sbsI8
g0
(g198
g2
Ntp208
Rp209
(dp210
g202
g203
sg204
F1.6656128453929584
sg205
F1.0
sg15
I8
sg206
g207
sbsI24
g0
(g198
g2
Ntp211
Rp212
(dp213
g202
g203
sg204
F1.3988811170992401
sg205
F1.0
sg15
I24
sg206
g207
sbssg15
I107
sS'fitness'
p214
I0
sb.