ccopy_reg
_reconstructor
p0
(cneat.genome
DefaultGenome
p1
c__builtin__
object
p2
Ntp3
Rp4
(dp5
S'connections'
p6
(dp7
(I-8
I9
tp8
g0
(cneat.genes
DefaultConnectionGene
p9
g2
Ntp10
Rp11
(dp12
S'enabled'
p13
I01
sS'weight'
p14
F-0.3819069878760028
sS'key'
p15
g8
sbs(I-23
I0
tp16
g0
(g9
g2
Ntp17
Rp18
(dp19
g13
I01
sg14
F0.9881683233369417
sg15
g16
sbs(I-2
I0
tp20
g0
(g9
g2
Ntp21
Rp22
(dp23
g13
I01
sg14
F-0.5603961119924503
sg15
g20
sbs(I-43
I0
tp24
g0
(g9
g2
Ntp25
Rp26
(dp27
g13
I01
sg14
F-0.6401023105644735
sg15
g24
sbs(I-38
I0
tp28
g0
(g9
g2
Ntp29
Rp30
(dp31
g13
I01
sg14
F1.349328174128648
sg15
g28
sbs(I-4
I9
tp32
g0
(g9
g2
Ntp33
Rp34
(dp35
g13
I01
sg14
F-0.050278035994704845
sg15
g32
sbs(I-38
I9
tp36
g0
(g9
g2
Ntp37
Rp38
(dp39
g13
I01
sg14
F0.10135840831050878
sg15
g36
sbs(I-12
I0
tp40
g0
(g9
g2
Ntp41
Rp42
(dp43
g13
I01
sg14
F-0.3374539401013163
sg15
g40
sbs(I-7
I0
tp44
g0
(g9
g2
Ntp45
Rp46
(dp47
g13
I01
sg14
F0.962122996007773
sg15
g44
sbs(I-14
I9
tp48
g0
(g9
g2
Ntp49
Rp50
(dp51
g13
I01
sg14
F-0.31718708906481013
sg15
g48
sbs(I-37
I9
tp52
g0
(g9
g2
Ntp53
Rp54
(dp55
g13
I01
sg14
F0.9656160863441591
sg15
g52
sbs(I-22
I9
tp56
g0
(g9
g2
Ntp57
Rp58
(dp59
g13
I01
sg14
F-0.18877506186983903
sg15
g56
sbs(I-1
I0
tp60
g0
(g9
g2
Ntp61
Rp62
(dp63
g13
I01
sg14
F-0.5387245481229986
sg15
g60
sbs(I-37
I0
tp64
g0
(g9
g2
Ntp65
Rp66
(dp67
g13
I01
sg14
F1.3020876331291997
sg15
g64
sbs(I-30
I9
tp68
g0
(g9
g2
Ntp69
Rp70
(dp71
g13
I01
sg14
F2.021433524490442
sg15
g68
sbs(I-11
I0
tp72
g0
(g9
g2
Ntp73
Rp74
(dp75
g13
I01
sg14
F0.8476565703182011
sg15
g72
sbs(I-6
I9
tp76
g0
(g9
g2
Ntp77
Rp78
(dp79
g13
I01
sg14
F-1.4873926859432034
sg15
g76
sbs(I-21
I0
tp80
g0
(g9
g2
Ntp81
Rp82
(dp83
g13
I01
sg14
F0.2558468141510181
sg15
g80
sbs(I-41
I0
tp84
g0
(g9
g2
Ntp85
Rp86
(dp87
g13
I01
sg14
F3.082815108570527
sg15
g84
sbs(I-31
I0
tp88
g0
(g9
g2
Ntp89
Rp90
(dp91
g13
I01
sg14
F1.5484993520161832
sg15
g88
sbs(I-39
I9
tp92
g0
(g9
g2
Ntp93
Rp94
(dp95
g13
I01
sg14
F-0.3039825583329782
sg15
g92
sbs(I-13
I9
tp96
g0
(g9
g2
Ntp97
Rp98
(dp99
g13
I01
sg14
F-1.5464289814773453
sg15
g96
sbs(I-15
I9
tp100
g0
(g9
g2
Ntp101
Rp102
(dp103
g13
I01
sg14
F-1.0022000270278708
sg15
g100
sbs(I-20
I0
tp104
g0
(g9
g2
Ntp105
Rp106
(dp107
g13
I01
sg14
F0.7384597004760397
sg15
g104
sbs(I-17
I0
tp108
g0
(g9
g2
Ntp109
Rp110
(dp111
g13
I01
sg14
F1.2244472855819781
sg15
g108
sbs(I-15
I0
tp112
g0
(g9
g2
Ntp113
Rp114
(dp115
g13
I01
sg14
F0.6860301419237431
sg15
g112
sbs(I-35
I0
tp116
g0
(g9
g2
Ntp117
Rp118
(dp119
g13
I01
sg14
F1.6932874924316008
sg15
g116
sbs(I-30
I0
tp120
g0
(g9
g2
Ntp121
Rp122
(dp123
g13
I01
sg14
F0.24471010363412055
sg15
g120
sbs(I-9
I0
tp124
g0
(g9
g2
Ntp125
Rp126
(dp127
g13
I01
sg14
F0.4907684285742345
sg15
g124
sbs(I-19
I9
tp128
g0
(g9
g2
Ntp129
Rp130
(dp131
g13
I01
sg14
F0.8214596960926528
sg15
g128
sbs(I-40
I0
tp132
g0
(g9
g2
Ntp133
Rp134
(dp135
g13
I01
sg14
F-0.31569229442551283
sg15
g132
sbs(I-7
I9
tp136
g0
(g9
g2
Ntp137
Rp138
(dp139
g13
I01
sg14
F0.9932332060831502
sg15
g136
sbs(I-40
I9
tp140
g0
(g9
g2
Ntp141
Rp142
(dp143
g13
I01
sg14
F-0.6472695964298566
sg15
g140
sbs(I-27
I9
tp144
g0
(g9
g2
Ntp145
Rp146
(dp147
g13
I01
sg14
F-0.08995886356370388
sg15
g144
sbs(I-26
I9
tp148
g0
(g9
g2
Ntp149
Rp150
(dp151
g13
I01
sg14
F0.9226538182489932
sg15
g148
sbs(I-34
I0
tp152
g0
(g9
g2
Ntp153
Rp154
(dp155
g13
I01
sg14
F1.081984171726349
sg15
g152
sbs(I-16
I9
tp156
g0
(g9
g2
Ntp157
Rp158
(dp159
g13
I01
sg14
F0.46356695286541405
sg15
g156
sbs(I-36
I9
tp160
g0
(g9
g2
Ntp161
Rp162
(dp163
g13
I01
sg14
F1.1785265592130343
sg15
g160
sbs(I-10
I0
tp164
g0
(g9
g2
Ntp165
Rp166
(dp167
g13
I01
sg14
F-1.2397235824925645
sg15
g164
sbs(I-11
I9
tp168
g0
(g9
g2
Ntp169
Rp170
(dp171
g13
I01
sg14
F-0.7216241099610305
sg15
g168
sbs(I-18
I0
tp172
g0
(g9
g2
Ntp173
Rp174
(dp175
g13
I01
sg14
F1.3611027295961187
sg15
g172
sbs(I-13
I0
tp176
g0
(g9
g2
Ntp177
Rp178
(dp179
g13
I01
sg14
F1.0602848347108556
sg15
g176
sbs(I-8
I0
tp180
g0
(g9
g2
Ntp181
Rp182
(dp183
g13
I01
sg14
F-0.5385152810723143
sg15
g180
sbs(I-28
I0
tp184
g0
(g9
g2
Ntp185
Rp186
(dp187
g13
I01
sg14
F-0.13649516477528348
sg15
g184
sbssS'nodes'
p188
(dp189
I0
g0
(cneat.genes
DefaultNodeGene
p190
g2
Ntp191
Rp192
(dp193
S'activation'
p194
S'sigmoid'
p195
sS'bias'
p196
F-0.4077847412500307
sS'response'
p197
F1.0
sg15
I0
sS'aggregation'
p198
S'sum'
p199
sbsI9
g0
(g190
g2
Ntp200
Rp201
(dp202
g194
g195
sg196
F0.7287852517146989
sg197
F1.0
sg15
I9
sg198
g199
sbssg15
I9
sS'fitness'
p203
I-1000
sb.