ccopy_reg
_reconstructor
p0
(cneat.genome
DefaultGenome
p1
c__builtin__
object
p2
Ntp3
Rp4
(dp5
S'connections'
p6
(dp7
(I-10
I20
tp8
g0
(cneat.genes
DefaultConnectionGene
p9
g2
Ntp10
Rp11
(dp12
S'enabled'
p13
I01
sS'weight'
p14
F0.07779598461940615
sS'key'
p15
g8
sbs(I-23
I0
tp16
g0
(g9
g2
Ntp17
Rp18
(dp19
g13
I01
sg14
F1.8689847952755305
sg15
g16
sbs(I-24
I0
tp20
g0
(g9
g2
Ntp21
Rp22
(dp23
g13
I01
sg14
F-1.1738073160504283
sg15
g20
sbs(I-5
I20
tp24
g0
(g9
g2
Ntp25
Rp26
(dp27
g13
I01
sg14
F0.191563930200581
sg15
g24
sbs(I-1
I0
tp28
g0
(g9
g2
Ntp29
Rp30
(dp31
g13
I01
sg14
F-1.37817643606335
sg15
g28
sbs(I-4
I0
tp32
g0
(g9
g2
Ntp33
Rp34
(dp35
g13
I01
sg14
F1.747395600957239
sg15
g32
sbs(I-29
I20
tp36
g0
(g9
g2
Ntp37
Rp38
(dp39
g13
I01
sg14
F0.267647445336715
sg15
g36
sbs(I-26
I0
tp40
g0
(g9
g2
Ntp41
Rp42
(dp43
g13
I01
sg14
F0.47685162522715047
sg15
g40
sbs(I-27
I0
tp44
g0
(g9
g2
Ntp45
Rp46
(dp47
g13
I01
sg14
F-0.17239504926445776
sg15
g44
sbs(I-14
I20
tp48
g0
(g9
g2
Ntp49
Rp50
(dp51
g13
I01
sg14
F0.3022441335671222
sg15
g48
sbs(I-6
I20
tp52
g0
(g9
g2
Ntp53
Rp54
(dp55
g13
I01
sg14
F-0.36468872043888645
sg15
g52
sbs(I-37
I0
tp56
g0
(g9
g2
Ntp57
Rp58
(dp59
g13
I01
sg14
F-0.1904810054326414
sg15
g56
sbs(I-9
I20
tp60
g0
(g9
g2
Ntp61
Rp62
(dp63
g13
I01
sg14
F1.756471536057051
sg15
g60
sbs(I-40
I0
tp64
g0
(g9
g2
Ntp65
Rp66
(dp67
g13
I01
sg14
F0.2533694523617984
sg15
g64
sbs(I-11
I0
tp68
g0
(g9
g2
Ntp69
Rp70
(dp71
g13
I01
sg14
F2.196320803381192
sg15
g68
sbs(I-2
I20
tp72
g0
(g9
g2
Ntp73
Rp74
(dp75
g13
I01
sg14
F0.2694877906032376
sg15
g72
sbs(I-30
I20
tp76
g0
(g9
g2
Ntp77
Rp78
(dp79
g13
I01
sg14
F-0.5733029786253762
sg15
g76
sbs(I20
I0
tp80
g0
(g9
g2
Ntp81
Rp82
(dp83
g13
I01
sg14
F0.15045334243858013
sg15
g80
sbs(I-21
I0
tp84
g0
(g9
g2
Ntp85
Rp86
(dp87
g13
I01
sg14
F2.7656887722848493
sg15
g84
sbs(I-39
I20
tp88
g0
(g9
g2
Ntp89
Rp90
(dp91
g13
I01
sg14
F1.6869287372411517
sg15
g88
sbs(I-36
I0
tp92
g0
(g9
g2
Ntp93
Rp94
(dp95
g13
I01
sg14
F0.24677657019703444
sg15
g92
sbs(I-28
I20
tp96
g0
(g9
g2
Ntp97
Rp98
(dp99
g13
I01
sg14
F1.2223856294238464
sg15
g96
sbs(I-8
I20
tp100
g0
(g9
g2
Ntp101
Rp102
(dp103
g13
I01
sg14
F-0.025291127137045195
sg15
g100
sbs(I-5
I0
tp104
g0
(g9
g2
Ntp105
Rp106
(dp107
g13
I01
sg14
F-0.08353183427127399
sg15
g104
sbs(I-17
I0
tp108
g0
(g9
g2
Ntp109
Rp110
(dp111
g13
I01
sg14
F-0.3867163400850165
sg15
g108
sbs(I-15
I0
tp112
g0
(g9
g2
Ntp113
Rp114
(dp115
g13
I01
sg14
F1.1718252487333802
sg15
g112
sbs(I-35
I0
tp116
g0
(g9
g2
Ntp117
Rp118
(dp119
g13
I01
sg14
F-1.1076323553046359
sg15
g116
sbs(I-30
I0
tp120
g0
(g9
g2
Ntp121
Rp122
(dp123
g13
I01
sg14
F-0.9481640437015036
sg15
g120
sbs(I-27
I20
tp124
g0
(g9
g2
Ntp125
Rp126
(dp127
g13
I01
sg14
F-0.864432669305536
sg15
g124
sbs(I-9
I0
tp128
g0
(g9
g2
Ntp129
Rp130
(dp131
g13
I01
sg14
F-0.19359675050434524
sg15
g128
sbs(I-22
I20
tp132
g0
(g9
g2
Ntp133
Rp134
(dp135
g13
I01
sg14
F0.5539694371267864
sg15
g132
sbs(I-7
I20
tp136
g0
(g9
g2
Ntp137
Rp138
(dp139
g13
I01
sg14
F-0.4482550207594084
sg15
g136
sbs(I-16
I20
tp140
g0
(g9
g2
Ntp141
Rp142
(dp143
g13
I01
sg14
F1.0668293350054208
sg15
g140
sbs(I-12
I0
tp144
g0
(g9
g2
Ntp145
Rp146
(dp147
g13
I01
sg14
F0.6617025537719816
sg15
g144
sbs(I-40
I20
tp148
g0
(g9
g2
Ntp149
Rp150
(dp151
g13
I01
sg14
F-0.2924572432137363
sg15
g148
sbs(I-19
I0
tp152
g0
(g9
g2
Ntp153
Rp154
(dp155
g13
I01
sg14
F1.0032894541489648
sg15
g152
sbs(I-14
I0
tp156
g0
(g9
g2
Ntp157
Rp158
(dp159
g13
I01
sg14
F-1.6271278102056257
sg15
g156
sbs(I-32
I20
tp160
g0
(g9
g2
Ntp161
Rp162
(dp163
g13
I01
sg14
F1.554542767994199
sg15
g160
sbs(I-29
I0
tp164
g0
(g9
g2
Ntp165
Rp166
(dp167
g13
I01
sg14
F0.6070011573674412
sg15
g164
sbs(I-12
I20
tp168
g0
(g9
g2
Ntp169
Rp170
(dp171
g13
I01
sg14
F0.938535452584924
sg15
g168
sbs(I-18
I0
tp172
g0
(g9
g2
Ntp173
Rp174
(dp175
g13
I01
sg14
F1.2309897528517264
sg15
g172
sbs(I-24
I20
tp176
g0
(g9
g2
Ntp177
Rp178
(dp179
g13
I01
sg14
F0.26479368599170766
sg15
g176
sbs(I-13
I0
tp180
g0
(g9
g2
Ntp181
Rp182
(dp183
g13
I01
sg14
F1.9736130501075058
sg15
g180
sbs(I-33
I0
tp184
g0
(g9
g2
Ntp185
Rp186
(dp187
g13
I01
sg14
F0.8572508176613565
sg15
g184
sbssS'nodes'
p188
(dp189
I0
g0
(cneat.genes
DefaultNodeGene
p190
g2
Ntp191
Rp192
(dp193
S'activation'
p194
S'sigmoid'
p195
sS'bias'
p196
F0.4337718874359121
sS'response'
p197
F1.0
sg15
I0
sS'aggregation'
p198
S'sum'
p199
sbsI20
g0
(g190
g2
Ntp200
Rp201
(dp202
g194
g195
sg196
F-1.1738983633153528
sg197
F1.0
sg15
I20
sg198
g199
sbssg15
I20
sS'fitness'
p203
I-1000
sb.