ccopy_reg
_reconstructor
p0
(cneat.genome
DefaultGenome
p1
c__builtin__
object
p2
Ntp3
Rp4
(dp5
S'connections'
p6
(dp7
(I-3
I8
tp8
g0
(cneat.genes
DefaultConnectionGene
p9
g2
Ntp10
Rp11
(dp12
S'enabled'
p13
I01
sS'weight'
p14
F0.2677512329803459
sS'key'
p15
g8
sbs(I-38
I0
tp16
g0
(g9
g2
Ntp17
Rp18
(dp19
g13
I01
sg14
F-2.8376258206990617
sg15
g16
sbs(I-11
I8
tp20
g0
(g9
g2
Ntp21
Rp22
(dp23
g13
I01
sg14
F1.1571073592726542
sg15
g20
sbs(I-12
I0
tp24
g0
(g9
g2
Ntp25
Rp26
(dp27
g13
I01
sg14
F0.27641662175902515
sg15
g24
sbs(I-7
I0
tp28
g0
(g9
g2
Ntp29
Rp30
(dp31
g13
I01
sg14
F-0.009396004223889254
sg15
g28
sbs(I-27
I0
tp32
g0
(g9
g2
Ntp33
Rp34
(dp35
g13
I01
sg14
F1.3210729243240582
sg15
g32
sbs(I24
I0
tp36
g0
(g9
g2
Ntp37
Rp38
(dp39
g13
I01
sg14
F2.6183208699711953
sg15
g36
sbs(I-42
I0
tp40
g0
(g9
g2
Ntp41
Rp42
(dp43
g13
I01
sg14
F3.529119528346633
sg15
g40
sbs(I-37
I0
tp44
g0
(g9
g2
Ntp45
Rp46
(dp47
g13
I01
sg14
F1.042200205816569
sg15
g44
sbs(I-6
I0
tp48
g0
(g9
g2
Ntp49
Rp50
(dp51
g13
I01
sg14
F3.7475673800351883
sg15
g48
sbs(I-26
I0
tp52
g0
(g9
g2
Ntp53
Rp54
(dp55
g13
I01
sg14
F-0.8344293691749742
sg15
g52
sbs(I-21
I0
tp56
g0
(g9
g2
Ntp57
Rp58
(dp59
g13
I01
sg14
F-1.0352788915220084
sg15
g56
sbs(I-41
I0
tp60
g0
(g9
g2
Ntp61
Rp62
(dp63
g13
I01
sg14
F-1.7407553520244392
sg15
g60
sbs(I-42
I8
tp64
g0
(g9
g2
Ntp65
Rp66
(dp67
g13
I01
sg14
F1.4636518241922274
sg15
g64
sbs(I-36
I0
tp68
g0
(g9
g2
Ntp69
Rp70
(dp71
g13
I01
sg14
F-2.0348702901998523
sg15
g68
sbs(I-32
I8
tp72
g0
(g9
g2
Ntp73
Rp74
(dp75
g13
I01
sg14
F-1.2749928271611628
sg15
g72
sbs(I-9
I24
tp76
g0
(g9
g2
Ntp77
Rp78
(dp79
g13
I01
sg14
F-1.2505523764824784
sg15
g76
sbs(I-25
I0
tp80
g0
(g9
g2
Ntp81
Rp82
(dp83
g13
I00
sg14
F-2.160711721066165
sg15
g80
sbs(I-26
I8
tp84
g0
(g9
g2
Ntp85
Rp86
(dp87
g13
I01
sg14
F-0.7095757949858115
sg15
g84
sbs(I-21
I8
tp88
g0
(g9
g2
Ntp89
Rp90
(dp91
g13
I01
sg14
F2.1374893367592485
sg15
g88
sbs(I-15
I0
tp92
g0
(g9
g2
Ntp93
Rp94
(dp95
g13
I01
sg14
F0.496939133646766
sg15
g92
sbs(I-16
I8
tp96
g0
(g9
g2
Ntp97
Rp98
(dp99
g13
I01
sg14
F-1.1634773536288863
sg15
g96
sbs(I-29
I8
tp100
g0
(g9
g2
Ntp101
Rp102
(dp103
g13
I01
sg14
F1.2791497698835235
sg15
g100
sbs(I-24
I8
tp104
g0
(g9
g2
Ntp105
Rp106
(dp107
g13
I01
sg14
F-0.5148454540568983
sg15
g104
sbs(I-9
I0
tp108
g0
(g9
g2
Ntp109
Rp110
(dp111
g13
I00
sg14
F-2.084896944275378
sg15
g108
sbs(I-5
I8
tp112
g0
(g9
g2
Ntp113
Rp114
(dp115
g13
I01
sg14
F1.7267327721363623
sg15
g112
sbs(I-18
I8
tp116
g0
(g9
g2
Ntp117
Rp118
(dp119
g13
I01
sg14
F-1.0005446671351514
sg15
g116
sbs(I-20
I8
tp120
g0
(g9
g2
Ntp121
Rp122
(dp123
g13
I01
sg14
F1.4676701648103845
sg15
g120
sbs(I-13
I8
tp124
g0
(g9
g2
Ntp125
Rp126
(dp127
g13
I01
sg14
F-2.5184778533484318
sg15
g124
sbs(I-15
I8
tp128
g0
(g9
g2
Ntp129
Rp130
(dp131
g13
I01
sg14
F1.6903707965907708
sg15
g128
sbs(I-33
I8
tp132
g0
(g9
g2
Ntp133
Rp134
(dp135
g13
I01
sg14
F-1.502704452614176
sg15
g132
sbs(I-34
I0
tp136
g0
(g9
g2
Ntp137
Rp138
(dp139
g13
I01
sg14
F-0.2433847258981238
sg15
g136
sbs(I-28
I8
tp140
g0
(g9
g2
Ntp141
Rp142
(dp143
g13
I01
sg14
F0.963451959607887
sg15
g140
sbs(I-30
I8
tp144
g0
(g9
g2
Ntp145
Rp146
(dp147
g13
I01
sg14
F-1.2108042804219201
sg15
g144
sbs(I-23
I8
tp148
g0
(g9
g2
Ntp149
Rp150
(dp151
g13
I01
sg14
F-0.7268962030159479
sg15
g148
sbs(I-24
I0
tp152
g0
(g9
g2
Ntp153
Rp154
(dp155
g13
I01
sg14
F-1.5285516545634827
sg15
g152
sbs(I-9
I8
tp156
g0
(g9
g2
Ntp157
Rp158
(dp159
g13
I01
sg14
F1.980834779868681
sg15
g156
sbs(I-43
I8
tp160
g0
(g9
g2
Ntp161
Rp162
(dp163
g13
I01
sg14
F-0.018284970340592527
sg15
g160
sbs(I-4
I8
tp164
g0
(g9
g2
Ntp165
Rp166
(dp167
g13
I01
sg14
F0.7541175177457601
sg15
g164
sbs(I-39
I0
tp168
g0
(g9
g2
Ntp169
Rp170
(dp171
g13
I01
sg14
F0.7994197698985209
sg15
g168
sbs(I-12
I8
tp172
g0
(g9
g2
Ntp173
Rp174
(dp175
g13
I01
sg14
F0.3532953348944716
sg15
g172
sbs(I-13
I0
tp176
g0
(g9
g2
Ntp177
Rp178
(dp179
g13
I01
sg14
F-1.0024482155162826
sg15
g176
sbs(I-7
I8
tp180
g0
(g9
g2
Ntp181
Rp182
(dp183
g13
I01
sg14
F0.6377217461616413
sg15
g180
sbs(I-8
I0
tp184
g0
(g9
g2
Ntp185
Rp186
(dp187
g13
I01
sg14
F0.28726938309368166
sg15
g184
sbs(I-27
I8
tp188
g0
(g9
g2
Ntp189
Rp190
(dp191
g13
I01
sg14
F-1.3697351961875706
sg15
g188
sbssS'nodes'
p192
(dp193
I0
g0
(cneat.genes
DefaultNodeGene
p194
g2
Ntp195
Rp196
(dp197
S'activation'
p198
S'sigmoid'
p199
sS'bias'
p200
F0.006877299110298829
sS'response'
p201
F1.0
sg15
I0
sS'aggregation'
p202
S'sum'
p203
sbsI8
g0
(g194
g2
Ntp204
Rp205
(dp206
g198
g199
sg200
F2.375370033425222
sg201
F1.0
sg15
I8
sg202
g203
sbsI24
g0
(g194
g2
Ntp207
Rp208
(dp209
g198
g199
sg200
F2.5312192740267516
sg201
F1.0
sg15
I24
sg202
g203
sbssg15
I121
sS'fitness'
p210
I-1000
sb.