ccopy_reg
_reconstructor
p0
(cneat.genome
DefaultGenome
p1
c__builtin__
object
p2
Ntp3
Rp4
(dp5
S'connections'
p6
(dp7
(I-23
I0
tp8
g0
(cneat.genes
DefaultConnectionGene
p9
g2
Ntp10
Rp11
(dp12
S'enabled'
p13
I01
sS'weight'
p14
F0.011778533659635437
sS'key'
p15
g8
sbs(I-26
I7
tp16
g0
(g9
g2
Ntp17
Rp18
(dp19
g13
I01
sg14
F0.20341918627698607
sg15
g16
sbs(I-1
I0
tp20
g0
(g9
g2
Ntp21
Rp22
(dp23
g13
I01
sg14
F-0.7348200139201363
sg15
g20
sbs(I-38
I0
tp24
g0
(g9
g2
Ntp25
Rp26
(dp27
g13
I01
sg14
F-0.4718411475577046
sg15
g24
sbs(I-17
I0
tp28
g0
(g9
g2
Ntp29
Rp30
(dp31
g13
I01
sg14
F-0.8723213401832777
sg15
g28
sbs(I0
I7
tp32
g0
(g9
g2
Ntp33
Rp34
(dp35
g13
I01
sg14
F0.06678343731800135
sg15
g32
sbs(I-39
I7
tp36
g0
(g9
g2
Ntp37
Rp38
(dp39
g13
I01
sg14
F-2.766556940184399
sg15
g36
sbs(I-40
I0
tp40
g0
(g9
g2
Ntp41
Rp42
(dp43
g13
I01
sg14
F-0.594427506119628
sg15
g40
sbs(I-7
I0
tp44
g0
(g9
g2
Ntp45
Rp46
(dp47
g13
I01
sg14
F0.7947334223921814
sg15
g44
sbs(I-19
I7
tp48
g0
(g9
g2
Ntp49
Rp50
(dp51
g13
I01
sg14
F-1.0979051958401402
sg15
g48
sbs(I-10
I7
tp52
g0
(g9
g2
Ntp53
Rp54
(dp55
g13
I01
sg14
F-1.7129549246575897
sg15
g52
sbs(I-27
I0
tp56
g0
(g9
g2
Ntp57
Rp58
(dp59
g13
I01
sg14
F1.8417460742618061
sg15
g56
sbs(I-6
I7
tp60
g0
(g9
g2
Ntp61
Rp62
(dp63
g13
I01
sg14
F0.039466925280020965
sg15
g60
sbs(I-36
I7
tp64
g0
(g9
g2
Ntp65
Rp66
(dp67
g13
I01
sg14
F1.0848280407810482
sg15
g64
sbs(I-23
I7
tp68
g0
(g9
g2
Ntp69
Rp70
(dp71
g13
I01
sg14
F-0.3721317044331295
sg15
g68
sbs(I-37
I0
tp72
g0
(g9
g2
Ntp73
Rp74
(dp75
g13
I01
sg14
F-0.691251878938423
sg15
g72
sbs(I-3
I7
tp76
g0
(g9
g2
Ntp77
Rp78
(dp79
g13
I01
sg14
F0.5777327179117064
sg15
g76
sbs(I-11
I0
tp80
g0
(g9
g2
Ntp81
Rp82
(dp83
g13
I01
sg14
F-0.3873069318896881
sg15
g80
sbs(I-2
I7
tp84
g0
(g9
g2
Ntp85
Rp86
(dp87
g13
I01
sg14
F-1.1862114924668152
sg15
g84
sbs(I-7
I7
tp88
g0
(g9
g2
Ntp89
Rp90
(dp91
g13
I01
sg14
F1.0950810092934404
sg15
g88
sbs(I-21
I0
tp92
g0
(g9
g2
Ntp93
Rp94
(dp95
g13
I01
sg14
F0.1653337157095669
sg15
g92
sbs(I-41
I0
tp96
g0
(g9
g2
Ntp97
Rp98
(dp99
g13
I01
sg14
F0.5407634997704129
sg15
g96
sbs(I-17
I7
tp100
g0
(g9
g2
Ntp101
Rp102
(dp103
g13
I01
sg14
F-0.5187136083438022
sg15
g100
sbs(I-36
I0
tp104
g0
(g9
g2
Ntp105
Rp106
(dp107
g13
I01
sg14
F-2.270525811415255
sg15
g104
sbs(I-31
I0
tp108
g0
(g9
g2
Ntp109
Rp110
(dp111
g13
I01
sg14
F-0.37597413756828657
sg15
g108
sbs(I-34
I7
tp112
g0
(g9
g2
Ntp113
Rp114
(dp115
g13
I01
sg14
F1.5985437753826757
sg15
g112
sbs(I-30
I7
tp116
g0
(g9
g2
Ntp117
Rp118
(dp119
g13
I01
sg14
F0.8902278011503083
sg15
g116
sbs(I-21
I7
tp120
g0
(g9
g2
Ntp121
Rp122
(dp123
g13
I01
sg14
F0.17039352672687302
sg15
g120
sbs(I-20
I0
tp124
g0
(g9
g2
Ntp125
Rp126
(dp127
g13
I01
sg14
F3.4817054314788316
sg15
g124
sbs(I-14
I7
tp128
g0
(g9
g2
Ntp129
Rp130
(dp131
g13
I01
sg14
F-0.33812264186373414
sg15
g128
sbs(I-5
I7
tp132
g0
(g9
g2
Ntp133
Rp134
(dp135
g13
I01
sg14
F0.09725624293874546
sg15
g132
sbs(I-4
I0
tp136
g0
(g9
g2
Ntp137
Rp138
(dp139
g13
I01
sg14
F0.2846729344550534
sg15
g136
sbs(I-12
I0
tp140
g0
(g9
g2
Ntp141
Rp142
(dp143
g13
I01
sg14
F-0.1791818462745229
sg15
g140
sbs(I-1
I7
tp144
g0
(g9
g2
Ntp145
Rp146
(dp147
g13
I01
sg14
F-0.8141111487516777
sg15
g144
sbs(I-41
I7
tp148
g0
(g9
g2
Ntp149
Rp150
(dp151
g13
I01
sg14
F1.6313783359263658
sg15
g148
sbs(I-19
I0
tp152
g0
(g9
g2
Ntp153
Rp154
(dp155
g13
I01
sg14
F-0.6218402779054298
sg15
g152
sbs(I-34
I0
tp156
g0
(g9
g2
Ntp157
Rp158
(dp159
g13
I01
sg14
F0.35537438401763316
sg15
g156
sbs(I-15
I7
tp160
g0
(g9
g2
Ntp161
Rp162
(dp163
g13
I01
sg14
F0.07811253516954995
sg15
g160
sbs(I-29
I0
tp164
g0
(g9
g2
Ntp165
Rp166
(dp167
g13
I01
sg14
F-2.151348215926811
sg15
g164
sbs(I-24
I0
tp168
g0
(g9
g2
Ntp169
Rp170
(dp171
g13
I01
sg14
F-0.43372155884804475
sg15
g168
sbs(I-25
I7
tp172
g0
(g9
g2
Ntp173
Rp174
(dp175
g13
I01
sg14
F1.0703957107618125
sg15
g172
sbs(I-3
I0
tp176
g0
(g9
g2
Ntp177
Rp178
(dp179
g13
I01
sg14
F2.212284621695397
sg15
g176
sbs(I-39
I0
tp180
g0
(g9
g2
Ntp181
Rp182
(dp183
g13
I01
sg14
F0.27784420689485867
sg15
g180
sbs(I-29
I7
tp184
g0
(g9
g2
Ntp185
Rp186
(dp187
g13
I01
sg14
F0.2502007166946435
sg15
g184
sbs(I-9
I7
tp188
g0
(g9
g2
Ntp189
Rp190
(dp191
g13
I01
sg14
F0.3916837871777196
sg15
g188
sbssS'nodes'
p192
(dp193
I0
g0
(cneat.genes
DefaultNodeGene
p194
g2
Ntp195
Rp196
(dp197
S'activation'
p198
S'sigmoid'
p199
sS'bias'
p200
F0.6499904604922475
sS'response'
p201
F1.0
sg15
I0
sS'aggregation'
p202
S'sum'
p203
sbsI7
g0
(g194
g2
Ntp204
Rp205
(dp206
g198
g199
sg200
F0.5477174842435774
sg201
F1.0
sg15
I7
sg202
g203
sbssg15
I33
sS'fitness'
p207
I-1000
sb.