ccopy_reg
_reconstructor
p0
(cneat.genome
DefaultGenome
p1
c__builtin__
object
p2
Ntp3
Rp4
(dp5
S'connections'
p6
(dp7
(I-23
I0
tp8
g0
(cneat.genes
DefaultConnectionGene
p9
g2
Ntp10
Rp11
(dp12
S'enabled'
p13
I01
sS'weight'
p14
F1.4428059310394068
sS'key'
p15
g8
sbs(I-1
I0
tp16
g0
(g9
g2
Ntp17
Rp18
(dp19
g13
I01
sg14
F1.2653561402141689
sg15
g16
sbs(I-43
I0
tp20
g0
(g9
g2
Ntp21
Rp22
(dp23
g13
I01
sg14
F0.7271107374136286
sg15
g20
sbs(I-19
I3
tp24
g0
(g9
g2
Ntp25
Rp26
(dp27
g13
I01
sg14
F-0.3394004563605475
sg15
g24
sbs(I3
I0
tp28
g0
(g9
g2
Ntp29
Rp30
(dp31
g13
I01
sg14
F0.19803441682063208
sg15
g28
sbs(I-36
I3
tp32
g0
(g9
g2
Ntp33
Rp34
(dp35
g13
I01
sg14
F-0.2833491030228721
sg15
g32
sbs(I-12
I0
tp36
g0
(g9
g2
Ntp37
Rp38
(dp39
g13
I01
sg14
F-0.7967318130665075
sg15
g36
sbs(I-7
I0
tp40
g0
(g9
g2
Ntp41
Rp42
(dp43
g13
I01
sg14
F0.005183957268430651
sg15
g40
sbs(I-13
I3
tp44
g0
(g9
g2
Ntp45
Rp46
(dp47
g13
I01
sg14
F-0.7934146051516978
sg15
g44
sbs(I-27
I0
tp48
g0
(g9
g2
Ntp49
Rp50
(dp51
g13
I01
sg14
F-0.4254233024503921
sg15
g48
sbs(I-3
I3
tp52
g0
(g9
g2
Ntp53
Rp54
(dp55
g13
I01
sg14
F0.4468060725383879
sg15
g52
sbs(I-39
I3
tp56
g0
(g9
g2
Ntp57
Rp58
(dp59
g13
I01
sg14
F0.7128505134620876
sg15
g56
sbs(I-29
I3
tp60
g0
(g9
g2
Ntp61
Rp62
(dp63
g13
I01
sg14
F-1.7262664394309666
sg15
g60
sbs(I-32
I0
tp64
g0
(g9
g2
Ntp65
Rp66
(dp67
g13
I01
sg14
F0.4751511229255446
sg15
g64
sbs(I-17
I3
tp68
g0
(g9
g2
Ntp69
Rp70
(dp71
g13
I01
sg14
F-0.6164903356136027
sg15
g68
sbs(I-23
I3
tp72
g0
(g9
g2
Ntp73
Rp74
(dp75
g13
I01
sg14
F0.8404134554655985
sg15
g72
sbs(I-4
I3
tp76
g0
(g9
g2
Ntp77
Rp78
(dp79
g13
I01
sg14
F-0.21494126690624843
sg15
g76
sbs(I-21
I0
tp80
g0
(g9
g2
Ntp81
Rp82
(dp83
g13
I01
sg14
F-2.179580857011475
sg15
g80
sbs(I-30
I3
tp84
g0
(g9
g2
Ntp85
Rp86
(dp87
g13
I01
sg14
F-0.8863806246112349
sg15
g84
sbs(I-7
I3
tp88
g0
(g9
g2
Ntp89
Rp90
(dp91
g13
I01
sg14
F0.6258087142461907
sg15
g88
sbs(I-37
I3
tp92
g0
(g9
g2
Ntp93
Rp94
(dp95
g13
I01
sg14
F-0.17382358467458753
sg15
g92
sbs(I-27
I3
tp96
g0
(g9
g2
Ntp97
Rp98
(dp99
g13
I01
sg14
F-0.5300231122281243
sg15
g96
sbs(I-5
I0
tp100
g0
(g9
g2
Ntp101
Rp102
(dp103
g13
I01
sg14
F-0.40678776349812895
sg15
g100
sbs(I-25
I0
tp104
g0
(g9
g2
Ntp105
Rp106
(dp107
g13
I01
sg14
F1.574473594073686
sg15
g104
sbs(I-34
I3
tp108
g0
(g9
g2
Ntp109
Rp110
(dp111
g13
I01
sg14
F1.5276923059839025
sg15
g108
sbs(I-9
I0
tp112
g0
(g9
g2
Ntp113
Rp114
(dp115
g13
I01
sg14
F-0.2829101809690766
sg15
g112
sbs(I-28
I3
tp116
g0
(g9
g2
Ntp117
Rp118
(dp119
g13
I01
sg14
F0.956691437067649
sg15
g116
sbs(I-4
I0
tp120
g0
(g9
g2
Ntp121
Rp122
(dp123
g13
I01
sg14
F-0.8472434557604794
sg15
g120
sbs(I-18
I3
tp124
g0
(g9
g2
Ntp125
Rp126
(dp127
g13
I01
sg14
F-0.6641474017527853
sg15
g124
sbs(I-5
I3
tp128
g0
(g9
g2
Ntp129
Rp130
(dp131
g13
I01
sg14
F0.480886928121432
sg15
g128
sbs(I-25
I3
tp132
g0
(g9
g2
Ntp133
Rp134
(dp135
g13
I01
sg14
F-0.49020087872076
sg15
g132
sbs(I-31
I3
tp136
g0
(g9
g2
Ntp137
Rp138
(dp139
g13
I01
sg14
F0.7399296204712968
sg15
g136
sbs(I-1
I3
tp140
g0
(g9
g2
Ntp141
Rp142
(dp143
g13
I01
sg14
F0.2760205260710663
sg15
g140
sbs(I-38
I3
tp144
g0
(g9
g2
Ntp145
Rp146
(dp147
g13
I01
sg14
F-0.4967445374463588
sg15
g144
sbs(I-10
I0
tp148
g0
(g9
g2
Ntp149
Rp150
(dp151
g13
I01
sg14
F0.9010949662822151
sg15
g148
sbs(I-29
I0
tp152
g0
(g9
g2
Ntp153
Rp154
(dp155
g13
I01
sg14
F0.28619525560003295
sg15
g152
sbs(I-15
I3
tp156
g0
(g9
g2
Ntp157
Rp158
(dp159
g13
I01
sg14
F0.18642058049470328
sg15
g156
sbs(I-18
I0
tp160
g0
(g9
g2
Ntp161
Rp162
(dp163
g13
I01
sg14
F1.5567841296488263
sg15
g160
sbs(I-35
I3
tp164
g0
(g9
g2
Ntp165
Rp166
(dp167
g13
I01
sg14
F0.8346473889710236
sg15
g164
sbs(I-13
I0
tp168
g0
(g9
g2
Ntp169
Rp170
(dp171
g13
I01
sg14
F0.9520943580807001
sg15
g168
sbs(I-32
I3
tp172
g0
(g9
g2
Ntp173
Rp174
(dp175
g13
I01
sg14
F0.6010688451147699
sg15
g172
sbs(I-8
I0
tp176
g0
(g9
g2
Ntp177
Rp178
(dp179
g13
I01
sg14
F-0.88469669514297
sg15
g176
sbs(I-33
I0
tp180
g0
(g9
g2
Ntp181
Rp182
(dp183
g13
I01
sg14
F0.6605040018349463
sg15
g180
sbs(I-28
I0
tp184
g0
(g9
g2
Ntp185
Rp186
(dp187
g13
I01
sg14
F1.1932338649542882
sg15
g184
sbssS'nodes'
p188
(dp189
I0
g0
(cneat.genes
DefaultNodeGene
p190
g2
Ntp191
Rp192
(dp193
S'activation'
p194
S'sigmoid'
p195
sS'bias'
p196
F0.854482965278702
sS'response'
p197
F1.0
sg15
I0
sS'aggregation'
p198
S'sum'
p199
sbsI3
g0
(g190
g2
Ntp200
Rp201
(dp202
g194
g195
sg196
F-0.29483703836618724
sg197
F1.0
sg15
I3
sg198
g199
sbssg15
I3
sS'fitness'
p203
I-1000
sb.