ccopy_reg
_reconstructor
p0
(cneat.genome
DefaultGenome
p1
c__builtin__
object
p2
Ntp3
Rp4
(dp5
S'connections'
p6
(dp7
(I-40
I19
tp8
g0
(cneat.genes
DefaultConnectionGene
p9
g2
Ntp10
Rp11
(dp12
S'enabled'
p13
I01
sS'weight'
p14
F-0.7297327183903997
sS'key'
p15
g8
sbs(I-1
I0
tp16
g0
(g9
g2
Ntp17
Rp18
(dp19
g13
I01
sg14
F0.5732604875800456
sg15
g16
sbs(I-7
I19
tp20
g0
(g9
g2
Ntp21
Rp22
(dp23
g13
I01
sg14
F2.9807497417656275
sg15
g20
sbs(I-17
I0
tp24
g0
(g9
g2
Ntp25
Rp26
(dp27
g13
I01
sg14
F0.09513965650565395
sg15
g24
sbs(I-37
I19
tp28
g0
(g9
g2
Ntp29
Rp30
(dp31
g13
I01
sg14
F1.0758131468569536
sg15
g28
sbs(I-5
I19
tp32
g0
(g9
g2
Ntp33
Rp34
(dp35
g13
I01
sg14
F0.9601959676467456
sg15
g32
sbs(I19
I0
tp36
g0
(g9
g2
Ntp37
Rp38
(dp39
g13
I01
sg14
F-0.8690015731858886
sg15
g36
sbs(I-2
I19
tp40
g0
(g9
g2
Ntp41
Rp42
(dp43
g13
I01
sg14
F0.5944051264831423
sg15
g40
sbs(I-22
I0
tp44
g0
(g9
g2
Ntp45
Rp46
(dp47
g13
I01
sg14
F1.4611604316410127
sg15
g44
sbs(I-2
I0
tp48
g0
(g9
g2
Ntp49
Rp50
(dp51
g13
I01
sg14
F0.7500124738955316
sg15
g48
sbs(I-41
I19
tp52
g0
(g9
g2
Ntp53
Rp54
(dp55
g13
I01
sg14
F-0.34636655354799833
sg15
g52
sbs(I-8
I19
tp56
g0
(g9
g2
Ntp57
Rp58
(dp59
g13
I01
sg14
F1.566528007228458
sg15
g56
sbs(I-32
I0
tp60
g0
(g9
g2
Ntp61
Rp62
(dp63
g13
I01
sg14
F-0.7323526496319755
sg15
g60
sbs(I-11
I0
tp64
g0
(g9
g2
Ntp65
Rp66
(dp67
g13
I01
sg14
F0.5570715494175411
sg15
g64
sbs(I-6
I0
tp68
g0
(g9
g2
Ntp69
Rp70
(dp71
g13
I01
sg14
F1.4594277205367414
sg15
g68
sbs(I-26
I0
tp72
g0
(g9
g2
Ntp73
Rp74
(dp75
g13
I01
sg14
F-0.37275574418183144
sg15
g72
sbs(I-23
I19
tp76
g0
(g9
g2
Ntp77
Rp78
(dp79
g13
I01
sg14
F-0.11480816678254675
sg15
g76
sbs(I-31
I19
tp80
g0
(g9
g2
Ntp81
Rp82
(dp83
g13
I01
sg14
F-0.11906367070803006
sg15
g80
sbs(I-41
I0
tp84
g0
(g9
g2
Ntp85
Rp86
(dp87
g13
I01
sg14
F-0.6572045599282067
sg15
g84
sbs(I-19
I0
tp88
g0
(g9
g2
Ntp89
Rp90
(dp91
g13
I01
sg14
F-0.16291827439126425
sg15
g88
sbs(I-14
I19
tp92
g0
(g9
g2
Ntp93
Rp94
(dp95
g13
I01
sg14
F-0.4030724598814221
sg15
g92
sbs(I-31
I0
tp96
g0
(g9
g2
Ntp97
Rp98
(dp99
g13
I01
sg14
F-0.1397116890677786
sg15
g96
sbs(I-11
I19
tp100
g0
(g9
g2
Ntp101
Rp102
(dp103
g13
I01
sg14
F1.5602472794536926
sg15
g100
sbs(I-38
I19
tp104
g0
(g9
g2
Ntp105
Rp106
(dp107
g13
I01
sg14
F-1.1946414458667745
sg15
g104
sbs(I-5
I0
tp108
g0
(g9
g2
Ntp109
Rp110
(dp111
g13
I01
sg14
F-0.31404273402884336
sg15
g108
sbs(I-9
I19
tp112
g0
(g9
g2
Ntp113
Rp114
(dp115
g13
I01
sg14
F0.27754332103039564
sg15
g112
sbs(I-25
I0
tp116
g0
(g9
g2
Ntp117
Rp118
(dp119
g13
I01
sg14
F2.926967542873971
sg15
g116
sbs(I-20
I0
tp120
g0
(g9
g2
Ntp121
Rp122
(dp123
g13
I01
sg14
F-0.2962999248759816
sg15
g120
sbs(I-33
I19
tp124
g0
(g9
g2
Ntp125
Rp126
(dp127
g13
I01
sg14
F0.5220276705780718
sg15
g124
sbs(I-12
I0
tp128
g0
(g9
g2
Ntp129
Rp130
(dp131
g13
I01
sg14
F1.8966773151979288
sg15
g128
sbs(I-16
I19
tp132
g0
(g9
g2
Ntp133
Rp134
(dp135
g13
I01
sg14
F1.0317713022979056
sg15
g132
sbs(I-36
I19
tp136
g0
(g9
g2
Ntp137
Rp138
(dp139
g13
I01
sg14
F-1.222919977307101
sg15
g136
sbs(I-14
I0
tp140
g0
(g9
g2
Ntp141
Rp142
(dp143
g13
I01
sg14
F-1.0073474958287199
sg15
g140
sbs(I-39
I19
tp144
g0
(g9
g2
Ntp145
Rp146
(dp147
g13
I01
sg14
F-0.7416630232114774
sg15
g144
sbs(I-27
I19
tp148
g0
(g9
g2
Ntp149
Rp150
(dp151
g13
I01
sg14
F0.9280773834973667
sg15
g148
sbs(I-24
I19
tp152
g0
(g9
g2
Ntp153
Rp154
(dp155
g13
I01
sg14
F0.18946391135191856
sg15
g152
sbs(I-39
I0
tp156
g0
(g9
g2
Ntp157
Rp158
(dp159
g13
I01
sg14
F0.6622470403110803
sg15
g156
sbs(I-34
I19
tp160
g0
(g9
g2
Ntp161
Rp162
(dp163
g13
I01
sg14
F1.7116753022111222
sg15
g160
sbs(I-17
I19
tp164
g0
(g9
g2
Ntp165
Rp166
(dp167
g13
I01
sg14
F0.007459735812967041
sg15
g164
sbs(I-43
I19
tp168
g0
(g9
g2
Ntp169
Rp170
(dp171
g13
I01
sg14
F0.7560520624504041
sg15
g168
sbs(I-33
I0
tp172
g0
(g9
g2
Ntp173
Rp174
(dp175
g13
I01
sg14
F-2.2375397843345897
sg15
g172
sbs(I-21
I19
tp176
g0
(g9
g2
Ntp177
Rp178
(dp179
g13
I01
sg14
F-0.9216739660756447
sg15
g176
sbs(I-4
I19
tp180
g0
(g9
g2
Ntp181
Rp182
(dp183
g13
I01
sg14
F-0.6987707013900772
sg15
g180
sbs(I-28
I0
tp184
g0
(g9
g2
Ntp185
Rp186
(dp187
g13
I01
sg14
F0.2883660705978147
sg15
g184
sbssS'nodes'
p188
(dp189
I0
g0
(cneat.genes
DefaultNodeGene
p190
g2
Ntp191
Rp192
(dp193
S'activation'
p194
S'sigmoid'
p195
sS'bias'
p196
F-0.026622606040330756
sS'response'
p197
F1.0
sg15
I0
sS'aggregation'
p198
S'sum'
p199
sbsI19
g0
(g190
g2
Ntp200
Rp201
(dp202
g194
g195
sg196
F-0.5402473074206082
sg197
F1.0
sg15
I19
sg198
g199
sbssg15
I19
sS'fitness'
p203
I-1000
sb.