ccopy_reg
_reconstructor
p0
(cneat.genome
DefaultGenome
p1
c__builtin__
object
p2
Ntp3
Rp4
(dp5
S'connections'
p6
(dp7
(I-24
I14
tp8
g0
(cneat.genes
DefaultConnectionGene
p9
g2
Ntp10
Rp11
(dp12
S'enabled'
p13
I01
sS'weight'
p14
F-0.13775758950236364
sS'key'
p15
g8
sbs(I-2
I0
tp16
g0
(g9
g2
Ntp17
Rp18
(dp19
g13
I01
sg14
F0.4499609376733806
sg15
g16
sbs(I-43
I0
tp20
g0
(g9
g2
Ntp21
Rp22
(dp23
g13
I01
sg14
F1.0402395564498501
sg15
g20
sbs(I-38
I0
tp24
g0
(g9
g2
Ntp25
Rp26
(dp27
g13
I01
sg14
F-0.7924742309635482
sg15
g24
sbs(I-17
I0
tp28
g0
(g9
g2
Ntp29
Rp30
(dp31
g13
I01
sg14
F0.33998553667948284
sg15
g28
sbs(I-13
I14
tp32
g0
(g9
g2
Ntp33
Rp34
(dp35
g13
I01
sg14
F1.3863550485249418
sg15
g32
sbs(I-10
I14
tp36
g0
(g9
g2
Ntp37
Rp38
(dp39
g13
I01
sg14
F1.1431125542570115
sg15
g36
sbs(I-39
I14
tp40
g0
(g9
g2
Ntp41
Rp42
(dp43
g13
I01
sg14
F-0.7501411510584576
sg15
g40
sbs(I-36
I14
tp44
g0
(g9
g2
Ntp45
Rp46
(dp47
g13
I01
sg14
F-1.3944548612211636
sg15
g44
sbs(I-18
I14
tp48
g0
(g9
g2
Ntp49
Rp50
(dp51
g13
I01
sg14
F1.911870105033086
sg15
g48
sbs(I-22
I0
tp52
g0
(g9
g2
Ntp53
Rp54
(dp55
g13
I01
sg14
F-0.14448178177888332
sg15
g52
sbs(I-42
I0
tp56
g0
(g9
g2
Ntp57
Rp58
(dp59
g13
I01
sg14
F0.3834747297476101
sg15
g56
sbs(I-37
I0
tp60
g0
(g9
g2
Ntp61
Rp62
(dp63
g13
I01
sg14
F3.121320851354573
sg15
g60
sbs(I-25
I14
tp64
g0
(g9
g2
Ntp65
Rp66
(dp67
g13
I01
sg14
F0.8891895314922831
sg15
g64
sbs(I-23
I14
tp68
g0
(g9
g2
Ntp69
Rp70
(dp71
g13
I01
sg14
F1.0244262282390677
sg15
g68
sbs(I-5
I14
tp72
g0
(g9
g2
Ntp73
Rp74
(dp75
g13
I01
sg14
F-1.3277558593588503
sg15
g72
sbs(I-2
I14
tp76
g0
(g9
g2
Ntp77
Rp78
(dp79
g13
I01
sg14
F1.0935684855554477
sg15
g76
sbs(I-6
I0
tp80
g0
(g9
g2
Ntp81
Rp82
(dp83
g13
I01
sg14
F-0.5774537595629902
sg15
g80
sbs(I-9
I14
tp84
g0
(g9
g2
Ntp85
Rp86
(dp87
g13
I01
sg14
F1.300382045446303
sg15
g84
sbs(I-16
I0
tp88
g0
(g9
g2
Ntp89
Rp90
(dp91
g13
I01
sg14
F0.23592267321647922
sg15
g88
sbs(I-4
I14
tp92
g0
(g9
g2
Ntp93
Rp94
(dp95
g13
I01
sg14
F-0.2829856766158151
sg15
g92
sbs(I-35
I14
tp96
g0
(g9
g2
Ntp97
Rp98
(dp99
g13
I01
sg14
F0.9213474591831872
sg15
g96
sbs(I-17
I14
tp100
g0
(g9
g2
Ntp101
Rp102
(dp103
g13
I01
sg14
F1.3683690931661374
sg15
g100
sbs(I-30
I14
tp104
g0
(g9
g2
Ntp105
Rp106
(dp107
g13
I01
sg14
F-0.06706911750348167
sg15
g104
sbs(I-5
I0
tp108
g0
(g9
g2
Ntp109
Rp110
(dp111
g13
I01
sg14
F-0.17710989617316675
sg15
g108
sbs(I-38
I14
tp112
g0
(g9
g2
Ntp113
Rp114
(dp115
g13
I01
sg14
F0.12812794024831492
sg15
g112
sbs(I-43
I14
tp116
g0
(g9
g2
Ntp117
Rp118
(dp119
g13
I01
sg14
F0.84968903109255
sg15
g116
sbs(I-20
I0
tp120
g0
(g9
g2
Ntp121
Rp122
(dp123
g13
I01
sg14
F-2.7897108032777616
sg15
g120
sbs(I-31
I14
tp124
g0
(g9
g2
Ntp125
Rp126
(dp127
g13
I01
sg14
F0.4469391532761871
sg15
g124
sbs(I-14
I14
tp128
g0
(g9
g2
Ntp129
Rp130
(dp131
g13
I01
sg14
F-0.30769072618418236
sg15
g128
sbs(I-30
I0
tp132
g0
(g9
g2
Ntp133
Rp134
(dp135
g13
I01
sg14
F0.41162311584090966
sg15
g132
sbs(I-22
I14
tp136
g0
(g9
g2
Ntp137
Rp138
(dp139
g13
I01
sg14
F0.15061989341853335
sg15
g136
sbs(I-3
I14
tp140
g0
(g9
g2
Ntp141
Rp142
(dp143
g13
I01
sg14
F-0.8474061218543144
sg15
g140
sbs(I-12
I0
tp144
g0
(g9
g2
Ntp145
Rp146
(dp147
g13
I01
sg14
F-1.1477478951588702
sg15
g144
sbs(I-19
I0
tp148
g0
(g9
g2
Ntp149
Rp150
(dp151
g13
I01
sg14
F0.224468642115881
sg15
g148
sbs(I-11
I14
tp152
g0
(g9
g2
Ntp153
Rp154
(dp155
g13
I01
sg14
F1.4738218065600812
sg15
g152
sbs(I-14
I0
tp156
g0
(g9
g2
Ntp157
Rp158
(dp159
g13
I01
sg14
F1.939556874771312
sg15
g156
sbs(I-37
I14
tp160
g0
(g9
g2
Ntp161
Rp162
(dp163
g13
I01
sg14
F0.1838463655416618
sg15
g160
sbs(I-29
I0
tp164
g0
(g9
g2
Ntp165
Rp166
(dp167
g13
I01
sg14
F-0.2305439933360891
sg15
g164
sbs(I-1
I14
tp168
g0
(g9
g2
Ntp169
Rp170
(dp171
g13
I01
sg14
F0.22356997628094874
sg15
g168
sbs(I-21
I14
tp172
g0
(g9
g2
Ntp173
Rp174
(dp175
g13
I01
sg14
F-1.108781574994861
sg15
g172
sbs(I-8
I0
tp176
g0
(g9
g2
Ntp177
Rp178
(dp179
g13
I01
sg14
F-0.06088447778340097
sg15
g176
sbs(I-29
I14
tp180
g0
(g9
g2
Ntp181
Rp182
(dp183
g13
I01
sg14
F0.8122048757385862
sg15
g180
sbs(I-28
I0
tp184
g0
(g9
g2
Ntp185
Rp186
(dp187
g13
I01
sg14
F1.7373287148599978
sg15
g184
sbssS'nodes'
p188
(dp189
I0
g0
(cneat.genes
DefaultNodeGene
p190
g2
Ntp191
Rp192
(dp193
S'activation'
p194
S'sigmoid'
p195
sS'bias'
p196
F0.606778007215413
sS'response'
p197
F1.0
sg15
I0
sS'aggregation'
p198
S'sum'
p199
sbsI14
g0
(g190
g2
Ntp200
Rp201
(dp202
g194
g195
sg196
F-1.1514584379120567
sg197
F1.0
sg15
I14
sg198
g199
sbssg15
I14
sS'fitness'
p203
I-1000
sb.