ccopy_reg
_reconstructor
p0
(cneat.genome
DefaultGenome
p1
c__builtin__
object
p2
Ntp3
Rp4
(dp5
S'connections'
p6
(dp7
(I-23
I0
tp8
g0
(cneat.genes
DefaultConnectionGene
p9
g2
Ntp10
Rp11
(dp12
S'enabled'
p13
I01
sS'weight'
p14
F-0.662094560708738
sS'key'
p15
g8
sbs(I-39
I11
tp16
g0
(g9
g2
Ntp17
Rp18
(dp19
g13
I01
sg14
F-0.6062185103464944
sg15
g16
sbs(I-43
I0
tp20
g0
(g9
g2
Ntp21
Rp22
(dp23
g13
I01
sg14
F2.0303827836234
sg15
g20
sbs(I-9
I11
tp24
g0
(g9
g2
Ntp25
Rp26
(dp27
g13
I01
sg14
F0.06597724685595441
sg15
g24
sbs(I-17
I0
tp28
g0
(g9
g2
Ntp29
Rp30
(dp31
g13
I01
sg14
F-0.32425707294974054
sg15
g28
sbs(I-35
I11
tp32
g0
(g9
g2
Ntp33
Rp34
(dp35
g13
I01
sg14
F-0.4128227297717169
sg15
g32
sbs(I-17
I11
tp36
g0
(g9
g2
Ntp37
Rp38
(dp39
g13
I01
sg14
F-0.6726583170953525
sg15
g36
sbs(I-32
I11
tp40
g0
(g9
g2
Ntp41
Rp42
(dp43
g13
I01
sg14
F1.2548790247976815
sg15
g40
sbs(I-23
I11
tp44
g0
(g9
g2
Ntp45
Rp46
(dp47
g13
I01
sg14
F0.20444793786828083
sg15
g44
sbs(I-43
I11
tp48
g0
(g9
g2
Ntp49
Rp50
(dp51
g13
I01
sg14
F-0.15935133887174105
sg15
g48
sbs(I-42
I11
tp52
g0
(g9
g2
Ntp53
Rp54
(dp55
g13
I01
sg14
F-1.8479195171434921
sg15
g52
sbs(I-22
I0
tp56
g0
(g9
g2
Ntp57
Rp58
(dp59
g13
I01
sg14
F-1.871413719838264
sg15
g56
sbs(I-40
I11
tp60
g0
(g9
g2
Ntp61
Rp62
(dp63
g13
I01
sg14
F-0.6617751567197802
sg15
g60
sbs(I-19
I11
tp64
g0
(g9
g2
Ntp65
Rp66
(dp67
g13
I01
sg14
F1.2178502556348823
sg15
g64
sbs(I-7
I11
tp68
g0
(g9
g2
Ntp69
Rp70
(dp71
g13
I01
sg14
F-0.5225953555637392
sg15
g68
sbs(I-11
I0
tp72
g0
(g9
g2
Ntp73
Rp74
(dp75
g13
I01
sg14
F1.5188103454433834
sg15
g72
sbs(I-26
I11
tp76
g0
(g9
g2
Ntp77
Rp78
(dp79
g13
I01
sg14
F1.5458279594528896
sg15
g76
sbs(I-6
I0
tp80
g0
(g9
g2
Ntp81
Rp82
(dp83
g13
I01
sg14
F-0.6909871418207769
sg15
g80
sbs(I-3
I11
tp84
g0
(g9
g2
Ntp85
Rp86
(dp87
g13
I01
sg14
F0.7579485337702926
sg15
g84
sbs(I-36
I0
tp88
g0
(g9
g2
Ntp89
Rp90
(dp91
g13
I01
sg14
F-1.6464620270453578
sg15
g88
sbs(I-10
I11
tp92
g0
(g9
g2
Ntp93
Rp94
(dp95
g13
I01
sg14
F-0.398584394992458
sg15
g92
sbs(I-31
I0
tp96
g0
(g9
g2
Ntp97
Rp98
(dp99
g13
I01
sg14
F-1.1543635177886227
sg15
g96
sbs(I-10
I0
tp100
g0
(g9
g2
Ntp101
Rp102
(dp103
g13
I01
sg14
F-2.7232199021905243
sg15
g100
sbs(I-28
I11
tp104
g0
(g9
g2
Ntp105
Rp106
(dp107
g13
I01
sg14
F-0.515384421296764
sg15
g104
sbs(I-5
I0
tp108
g0
(g9
g2
Ntp109
Rp110
(dp111
g13
I01
sg14
F-2.1985993057905637
sg15
g108
sbs(I-20
I0
tp112
g0
(g9
g2
Ntp113
Rp114
(dp115
g13
I01
sg14
F1.3264728540914896
sg15
g112
sbs(I-15
I0
tp116
g0
(g9
g2
Ntp117
Rp118
(dp119
g13
I01
sg14
F1.4547251448340284
sg15
g116
sbs(I-1
I11
tp120
g0
(g9
g2
Ntp121
Rp122
(dp123
g13
I01
sg14
F-1.1058372314952523
sg15
g120
sbs(I-13
I0
tp124
g0
(g9
g2
Ntp125
Rp126
(dp127
g13
I01
sg14
F1.8517838087465195
sg15
g124
sbs(I-38
I11
tp128
g0
(g9
g2
Ntp129
Rp130
(dp131
g13
I01
sg14
F1.3961145280160094
sg15
g128
sbs(I-37
I11
tp132
g0
(g9
g2
Ntp133
Rp134
(dp135
g13
I01
sg14
F-1.09242051648439
sg15
g132
sbs(I11
I0
tp136
g0
(g9
g2
Ntp137
Rp138
(dp139
g13
I01
sg14
F-0.37407909613242496
sg15
g136
sbs(I-19
I0
tp140
g0
(g9
g2
Ntp141
Rp142
(dp143
g13
I01
sg14
F2.067767889508999
sg15
g140
sbs(I-14
I0
tp144
g0
(g9
g2
Ntp145
Rp146
(dp147
g13
I01
sg14
F-0.5058998275898373
sg15
g144
sbs(I-22
I11
tp148
g0
(g9
g2
Ntp149
Rp150
(dp151
g13
I01
sg14
F-0.9883345742475154
sg15
g148
sbs(I-34
I0
tp152
g0
(g9
g2
Ntp153
Rp154
(dp155
g13
I01
sg14
F-0.4804077997391608
sg15
g152
sbs(I-29
I0
tp156
g0
(g9
g2
Ntp157
Rp158
(dp159
g13
I01
sg14
F0.6640655220849976
sg15
g156
sbs(I-39
I0
tp160
g0
(g9
g2
Ntp161
Rp162
(dp163
g13
I01
sg14
F0.949031270628294
sg15
g160
sbs(I-6
I11
tp164
g0
(g9
g2
Ntp165
Rp166
(dp167
g13
I01
sg14
F0.7554605950973771
sg15
g164
sbs(I-5
I11
tp168
g0
(g9
g2
Ntp169
Rp170
(dp171
g13
I01
sg14
F-0.5725572593853572
sg15
g168
sbs(I-2
I11
tp172
g0
(g9
g2
Ntp173
Rp174
(dp175
g13
I01
sg14
F-1.0784365163562535
sg15
g172
sbs(I-8
I0
tp176
g0
(g9
g2
Ntp177
Rp178
(dp179
g13
I01
sg14
F0.08992223483514546
sg15
g176
sbs(I-28
I0
tp180
g0
(g9
g2
Ntp181
Rp182
(dp183
g13
I01
sg14
F1.926282026075959
sg15
g180
sbssS'nodes'
p184
(dp185
I0
g0
(cneat.genes
DefaultNodeGene
p186
g2
Ntp187
Rp188
(dp189
S'activation'
p190
S'sigmoid'
p191
sS'bias'
p192
F-2.0620203839540707
sS'response'
p193
F1.0
sg15
I0
sS'aggregation'
p194
S'sum'
p195
sbsI11
g0
(g186
g2
Ntp196
Rp197
(dp198
g190
g191
sg192
F0.5789922540737158
sg193
F1.0
sg15
I11
sg194
g195
sbssg15
I55
sS'fitness'
p199
I-1000
sb.