ccopy_reg
_reconstructor
p0
(cneat.genome
DefaultGenome
p1
c__builtin__
object
p2
Ntp3
Rp4
(dp5
S'connections'
p6
(dp7
(I-14
I23
tp8
g0
(cneat.genes
DefaultConnectionGene
p9
g2
Ntp10
Rp11
(dp12
S'enabled'
p13
I01
sS'weight'
p14
F2.519931349460447
sS'key'
p15
g8
sbs(I-23
I0
tp16
g0
(g9
g2
Ntp17
Rp18
(dp19
g13
I01
sg14
F-1.5802323555220406
sg15
g16
sbs(I-26
I7
tp20
g0
(g9
g2
Ntp21
Rp22
(dp23
g13
I01
sg14
F0.8716880822392736
sg15
g20
sbs(I-1
I0
tp24
g0
(g9
g2
Ntp25
Rp26
(dp27
g13
I01
sg14
F0.07587432366430003
sg15
g24
sbs(I-38
I0
tp28
g0
(g9
g2
Ntp29
Rp30
(dp31
g13
I01
sg14
F-0.8859622554676381
sg15
g28
sbs(I-17
I0
tp32
g0
(g9
g2
Ntp33
Rp34
(dp35
g13
I01
sg14
F-0.9684106114826758
sg15
g32
sbs(I-39
I7
tp36
g0
(g9
g2
Ntp37
Rp38
(dp39
g13
I01
sg14
F-2.5283693787080033
sg15
g36
sbs(I-7
I0
tp40
g0
(g9
g2
Ntp41
Rp42
(dp43
g13
I01
sg14
F0.27892721550921407
sg15
g40
sbs(I-19
I7
tp44
g0
(g9
g2
Ntp45
Rp46
(dp47
g13
I01
sg14
F-0.40110321944708316
sg15
g44
sbs(I-10
I7
tp48
g0
(g9
g2
Ntp49
Rp50
(dp51
g13
I01
sg14
F-2.7677403908748808
sg15
g48
sbs(I-27
I0
tp52
g0
(g9
g2
Ntp53
Rp54
(dp55
g13
I01
sg14
F0.9321944768762127
sg15
g52
sbs(I-6
I7
tp56
g0
(g9
g2
Ntp57
Rp58
(dp59
g13
I01
sg14
F-1.0009901815518338
sg15
g56
sbs(I-36
I7
tp60
g0
(g9
g2
Ntp61
Rp62
(dp63
g13
I01
sg14
F-1.3797360959952378
sg15
g60
sbs(I23
I7
tp64
g0
(g9
g2
Ntp65
Rp66
(dp67
g13
I01
sg14
F-0.6418394739340563
sg15
g64
sbs(I-37
I0
tp68
g0
(g9
g2
Ntp69
Rp70
(dp71
g13
I01
sg14
F-0.9932163174556554
sg15
g68
sbs(I-3
I7
tp72
g0
(g9
g2
Ntp73
Rp74
(dp75
g13
I01
sg14
F0.7174174343296842
sg15
g72
sbs(I-11
I0
tp76
g0
(g9
g2
Ntp77
Rp78
(dp79
g13
I01
sg14
F-0.5895716261010284
sg15
g76
sbs(I-1
I7
tp80
g0
(g9
g2
Ntp81
Rp82
(dp83
g13
I01
sg14
F3.1478797907101974
sg15
g80
sbs(I-12
I0
tp84
g0
(g9
g2
Ntp85
Rp86
(dp87
g13
I01
sg14
F3.2403367055174814
sg15
g84
sbs(I-7
I7
tp88
g0
(g9
g2
Ntp89
Rp90
(dp91
g13
I01
sg14
F2.3425103312601476
sg15
g88
sbs(I-41
I0
tp92
g0
(g9
g2
Ntp93
Rp94
(dp95
g13
I01
sg14
F-2.062832878606643
sg15
g92
sbs(I-17
I7
tp96
g0
(g9
g2
Ntp97
Rp98
(dp99
g13
I01
sg14
F0.26715243549454537
sg15
g96
sbs(I-36
I0
tp100
g0
(g9
g2
Ntp101
Rp102
(dp103
g13
I01
sg14
F0.5765885387739277
sg15
g100
sbs(I-14
I21
tp104
g0
(g9
g2
Ntp105
Rp106
(dp107
g13
I00
sg14
F1.406611400386577
sg15
g104
sbs(I-34
I7
tp108
g0
(g9
g2
Ntp109
Rp110
(dp111
g13
I01
sg14
F-0.8758545721408104
sg15
g108
sbs(I-30
I7
tp112
g0
(g9
g2
Ntp113
Rp114
(dp115
g13
I01
sg14
F1.1495760907208985
sg15
g112
sbs(I-21
I7
tp116
g0
(g9
g2
Ntp117
Rp118
(dp119
g13
I01
sg14
F0.05599037487190288
sg15
g116
sbs(I-20
I0
tp120
g0
(g9
g2
Ntp121
Rp122
(dp123
g13
I01
sg14
F0.299110150358134
sg15
g120
sbs(I-14
I7
tp124
g0
(g9
g2
Ntp125
Rp126
(dp127
g13
I00
sg14
F-0.0017703797391294268
sg15
g124
sbs(I-5
I7
tp128
g0
(g9
g2
Ntp129
Rp130
(dp131
g13
I01
sg14
F-0.833098411090701
sg15
g128
sbs(I-4
I0
tp132
g0
(g9
g2
Ntp133
Rp134
(dp135
g13
I01
sg14
F-0.2730084745646671
sg15
g132
sbs(I-40
I0
tp136
g0
(g9
g2
Ntp137
Rp138
(dp139
g13
I01
sg14
F-0.32731695097141544
sg15
g136
sbs(I-2
I7
tp140
g0
(g9
g2
Ntp141
Rp142
(dp143
g13
I01
sg14
F-1.7944615726171183
sg15
g140
sbs(I-31
I0
tp144
g0
(g9
g2
Ntp145
Rp146
(dp147
g13
I01
sg14
F-0.42399705555571815
sg15
g144
sbs(I-19
I0
tp148
g0
(g9
g2
Ntp149
Rp150
(dp151
g13
I01
sg14
F0.5242869380246284
sg15
g148
sbs(I-41
I7
tp152
g0
(g9
g2
Ntp153
Rp154
(dp155
g13
I01
sg14
F1.7842179255773272
sg15
g152
sbs(I-34
I0
tp156
g0
(g9
g2
Ntp157
Rp158
(dp159
g13
I01
sg14
F0.7696214009530624
sg15
g156
sbs(I-15
I7
tp160
g0
(g9
g2
Ntp161
Rp162
(dp163
g13
I01
sg14
F0.07811253516954995
sg15
g160
sbs(I-29
I0
tp164
g0
(g9
g2
Ntp165
Rp166
(dp167
g13
I01
sg14
F-1.0932086372399639
sg15
g164
sbs(I-24
I0
tp168
g0
(g9
g2
Ntp169
Rp170
(dp171
g13
I01
sg14
F-0.9084943576841945
sg15
g168
sbs(I-25
I7
tp172
g0
(g9
g2
Ntp173
Rp174
(dp175
g13
I01
sg14
F0.5036368426902591
sg15
g172
sbs(I-3
I0
tp176
g0
(g9
g2
Ntp177
Rp178
(dp179
g13
I01
sg14
F-0.4347521013336456
sg15
g176
sbs(I-39
I0
tp180
g0
(g9
g2
Ntp181
Rp182
(dp183
g13
I01
sg14
F0.8082548643716243
sg15
g180
sbs(I-29
I7
tp184
g0
(g9
g2
Ntp185
Rp186
(dp187
g13
I01
sg14
F-0.12589133897419857
sg15
g184
sbs(I21
I7
tp188
g0
(g9
g2
Ntp189
Rp190
(dp191
g13
I01
sg14
F0.6563563208886691
sg15
g188
sbs(I-9
I7
tp192
g0
(g9
g2
Ntp193
Rp194
(dp195
g13
I01
sg14
F0.9816156314920986
sg15
g192
sbssS'nodes'
p196
(dp197
I0
g0
(cneat.genes
DefaultNodeGene
p198
g2
Ntp199
Rp200
(dp201
S'activation'
p202
S'sigmoid'
p203
sS'bias'
p204
F-0.9242729142666343
sS'response'
p205
F1.0
sg15
I0
sS'aggregation'
p206
S'sum'
p207
sbsI23
g0
(g198
g2
Ntp208
Rp209
(dp210
g202
g203
sg204
F0.714648307864105
sg205
F1.0
sg15
I23
sg206
g207
sbsI21
g0
(g198
g2
Ntp211
Rp212
(dp213
g202
g203
sg204
F1.9018532741621241
sg205
F1.0
sg15
I21
sg206
g207
sbsI7
g0
(g198
g2
Ntp214
Rp215
(dp216
g202
g203
sg204
F1.8161221185614258
sg205
F1.0
sg15
I7
sg206
g207
sbssg15
I74
sS'fitness'
p217
F16.4
sb.