ccopy_reg
_reconstructor
p0
(cneat.genome
DefaultGenome
p1
c__builtin__
object
p2
Ntp3
Rp4
(dp5
S'connections'
p6
(dp7
(I-23
I0
tp8
g0
(cneat.genes
DefaultConnectionGene
p9
g2
Ntp10
Rp11
(dp12
S'enabled'
p13
I01
sS'weight'
p14
F-0.8816461601125177
sS'key'
p15
g8
sbs(I-1
I0
tp16
g0
(g9
g2
Ntp17
Rp18
(dp19
g13
I01
sg14
F-1.585246800232915
sg15
g16
sbs(I-12
I0
tp20
g0
(g9
g2
Ntp21
Rp22
(dp23
g13
I01
sg14
F1.028237656855118
sg15
g20
sbs(I-28
I13
tp24
g0
(g9
g2
Ntp25
Rp26
(dp27
g13
I01
sg14
F0.4915355102411087
sg15
g24
sbs(I-30
I13
tp28
g0
(g9
g2
Ntp29
Rp30
(dp31
g13
I01
sg14
F0.24660537248735387
sg15
g28
sbs(I-22
I0
tp32
g0
(g9
g2
Ntp33
Rp34
(dp35
g13
I01
sg14
F-1.1097984677288253
sg15
g32
sbs(I-42
I0
tp36
g0
(g9
g2
Ntp37
Rp38
(dp39
g13
I01
sg14
F0.6583276545605288
sg15
g36
sbs(I-2
I0
tp40
g0
(g9
g2
Ntp41
Rp42
(dp43
g13
I01
sg14
F-0.32188357566560327
sg15
g40
sbs(I-37
I0
tp44
g0
(g9
g2
Ntp45
Rp46
(dp47
g13
I01
sg14
F1.0433964077670297
sg15
g44
sbs(I-14
I13
tp48
g0
(g9
g2
Ntp49
Rp50
(dp51
g13
I01
sg14
F1.2182885767490632
sg15
g48
sbs(I-6
I0
tp52
g0
(g9
g2
Ntp53
Rp54
(dp55
g13
I01
sg14
F2.1116864050081414
sg15
g52
sbs(I13
I0
tp56
g0
(g9
g2
Ntp57
Rp58
(dp59
g13
I01
sg14
F-1.1138635604344669
sg15
g56
sbs(I-5
I13
tp60
g0
(g9
g2
Ntp61
Rp62
(dp63
g13
I01
sg14
F-0.8132899701925957
sg15
g60
sbs(I-21
I0
tp64
g0
(g9
g2
Ntp65
Rp66
(dp67
g13
I01
sg14
F-0.2532379800490786
sg15
g64
sbs(I-16
I0
tp68
g0
(g9
g2
Ntp69
Rp70
(dp71
g13
I01
sg14
F1.7746381428802616
sg15
g68
sbs(I-41
I0
tp72
g0
(g9
g2
Ntp73
Rp74
(dp75
g13
I01
sg14
F-1.5925887100130407
sg15
g72
sbs(I-13
I13
tp76
g0
(g9
g2
Ntp77
Rp78
(dp79
g13
I01
sg14
F1.2085568275875147
sg15
g76
sbs(I-31
I0
tp80
g0
(g9
g2
Ntp81
Rp82
(dp83
g13
I01
sg14
F-0.21878314981179414
sg15
g80
sbs(I-10
I0
tp84
g0
(g9
g2
Ntp85
Rp86
(dp87
g13
I01
sg14
F0.38888217314460816
sg15
g84
sbs(I-5
I0
tp88
g0
(g9
g2
Ntp89
Rp90
(dp91
g13
I01
sg14
F-1.323974912762325
sg15
g88
sbs(I-23
I13
tp92
g0
(g9
g2
Ntp93
Rp94
(dp95
g13
I01
sg14
F-1.1171207683640505
sg15
g92
sbs(I-42
I13
tp96
g0
(g9
g2
Ntp97
Rp98
(dp99
g13
I01
sg14
F-1.4453502633325273
sg15
g96
sbs(I-20
I0
tp100
g0
(g9
g2
Ntp101
Rp102
(dp103
g13
I01
sg14
F0.6502585117915649
sg15
g100
sbs(I-15
I0
tp104
g0
(g9
g2
Ntp105
Rp106
(dp107
g13
I01
sg14
F-0.3185930173016459
sg15
g104
sbs(I-36
I0
tp108
g0
(g9
g2
Ntp109
Rp110
(dp111
g13
I01
sg14
F1.1579279258513044
sg15
g108
sbs(I-32
I13
tp112
g0
(g9
g2
Ntp113
Rp114
(dp115
g13
I01
sg14
F-0.47348526382591727
sg15
g112
sbs(I-36
I13
tp116
g0
(g9
g2
Ntp117
Rp118
(dp119
g13
I01
sg14
F0.7643081525707098
sg15
g116
sbs(I-33
I13
tp120
g0
(g9
g2
Ntp121
Rp122
(dp123
g13
I01
sg14
F0.5466183643131318
sg15
g120
sbs(I-37
I13
tp124
g0
(g9
g2
Ntp125
Rp126
(dp127
g13
I01
sg14
F1.3501687941128908
sg15
g124
sbs(I-34
I13
tp128
g0
(g9
g2
Ntp129
Rp130
(dp131
g13
I01
sg14
F0.349984008308661
sg15
g128
sbs(I-17
I13
tp132
g0
(g9
g2
Ntp133
Rp134
(dp135
g13
I01
sg14
F0.7758403684418671
sg15
g132
sbs(I-19
I13
tp136
g0
(g9
g2
Ntp137
Rp138
(dp139
g13
I01
sg14
F-0.20786319330000436
sg15
g136
sbs(I-10
I13
tp140
g0
(g9
g2
Ntp141
Rp142
(dp143
g13
I01
sg14
F-1.6051751711205435
sg15
g140
sbs(I-29
I0
tp144
g0
(g9
g2
Ntp145
Rp146
(dp147
g13
I01
sg14
F-0.6146566886542664
sg15
g144
sbs(I-24
I0
tp148
g0
(g9
g2
Ntp149
Rp150
(dp151
g13
I01
sg14
F0.16901751614292662
sg15
g148
sbs(I-7
I0
tp152
g0
(g9
g2
Ntp153
Rp154
(dp155
g13
I01
sg14
F0.6652308661639151
sg15
g152
sbs(I-18
I13
tp156
g0
(g9
g2
Ntp157
Rp158
(dp159
g13
I01
sg14
F0.17318693309176483
sg15
g156
sbs(I-39
I0
tp160
g0
(g9
g2
Ntp161
Rp162
(dp163
g13
I01
sg14
F0.020801680119228675
sg15
g160
sbs(I-8
I13
tp164
g0
(g9
g2
Ntp165
Rp166
(dp167
g13
I01
sg14
F-0.9628948135647221
sg15
g164
sbs(I-18
I0
tp168
g0
(g9
g2
Ntp169
Rp170
(dp171
g13
I01
sg14
F-1.1670822086088282
sg15
g168
sbs(I-13
I0
tp172
g0
(g9
g2
Ntp173
Rp174
(dp175
g13
I01
sg14
F-1.297738348750893
sg15
g172
sbs(I-33
I0
tp176
g0
(g9
g2
Ntp177
Rp178
(dp179
g13
I01
sg14
F-0.08308478549184636
sg15
g176
sbs(I-11
I13
tp180
g0
(g9
g2
Ntp181
Rp182
(dp183
g13
I01
sg14
F0.23785124780668374
sg15
g180
sbs(I-2
I13
tp184
g0
(g9
g2
Ntp185
Rp186
(dp187
g13
I01
sg14
F1.4971964299179001
sg15
g184
sbssS'nodes'
p188
(dp189
I0
g0
(cneat.genes
DefaultNodeGene
p190
g2
Ntp191
Rp192
(dp193
S'activation'
p194
S'sigmoid'
p195
sS'bias'
p196
F1.6409045293465823
sS'response'
p197
F1.0
sg15
I0
sS'aggregation'
p198
S'sum'
p199
sbsI13
g0
(g190
g2
Ntp200
Rp201
(dp202
g194
g195
sg196
F-0.1807571272648334
sg197
F1.0
sg15
I13
sg198
g199
sbssg15
I13
sS'fitness'
p203
I-1000
sb.