ccopy_reg
_reconstructor
p0
(cneat.genome
DefaultGenome
p1
c__builtin__
object
p2
Ntp3
Rp4
(dp5
S'connections'
p6
(dp7
(I-14
I23
tp8
g0
(cneat.genes
DefaultConnectionGene
p9
g2
Ntp10
Rp11
(dp12
S'enabled'
p13
I01
sS'weight'
p14
F-0.08412635867564795
sS'key'
p15
g8
sbs(I-23
I0
tp16
g0
(g9
g2
Ntp17
Rp18
(dp19
g13
I01
sg14
F-1.8028603174067552
sg15
g16
sbs(I-1
I0
tp20
g0
(g9
g2
Ntp21
Rp22
(dp23
g13
I01
sg14
F2.5015585183337583
sg15
g20
sbs(I-38
I0
tp24
g0
(g9
g2
Ntp25
Rp26
(dp27
g13
I01
sg14
F-0.7890077692243873
sg15
g24
sbs(I-17
I0
tp28
g0
(g9
g2
Ntp29
Rp30
(dp31
g13
I01
sg14
F0.32696080875171973
sg15
g28
sbs(I-7
I0
tp32
g0
(g9
g2
Ntp33
Rp34
(dp35
g13
I01
sg14
F-1.3087911781744177
sg15
g32
sbs(I-27
I0
tp36
g0
(g9
g2
Ntp37
Rp38
(dp39
g13
I01
sg14
F0.16898441099436756
sg15
g36
sbs(I-37
I0
tp40
g0
(g9
g2
Ntp41
Rp42
(dp43
g13
I01
sg14
F0.04070093133105068
sg15
g40
sbs(I-11
I0
tp44
g0
(g9
g2
Ntp45
Rp46
(dp47
g13
I01
sg14
F-1.7825397881753604
sg15
g44
sbs(I-21
I0
tp48
g0
(g9
g2
Ntp49
Rp50
(dp51
g13
I01
sg14
F2.941321966544386
sg15
g48
sbs(I-41
I0
tp52
g0
(g9
g2
Ntp53
Rp54
(dp55
g13
I01
sg14
F-0.9430248120458001
sg15
g52
sbs(I-36
I0
tp56
g0
(g9
g2
Ntp57
Rp58
(dp59
g13
I01
sg14
F1.008798448161323
sg15
g56
sbs(I-14
I21
tp60
g0
(g9
g2
Ntp61
Rp62
(dp63
g13
I00
sg14
F-1.1873708749362204
sg15
g60
sbs(I-20
I0
tp64
g0
(g9
g2
Ntp65
Rp66
(dp67
g13
I01
sg14
F-0.11895901498039685
sg15
g64
sbs(I-4
I0
tp68
g0
(g9
g2
Ntp69
Rp70
(dp71
g13
I01
sg14
F0.9262448075984241
sg15
g68
sbs(I-40
I0
tp72
g0
(g9
g2
Ntp73
Rp74
(dp75
g13
I01
sg14
F-0.05582551527171803
sg15
g72
sbs(I-31
I0
tp76
g0
(g9
g2
Ntp77
Rp78
(dp79
g13
I01
sg14
F-2.48042227227748
sg15
g76
sbs(I-19
I0
tp80
g0
(g9
g2
Ntp81
Rp82
(dp83
g13
I01
sg14
F1.1296884137999763
sg15
g80
sbs(I-39
I43
tp84
g0
(g9
g2
Ntp85
Rp86
(dp87
g13
I01
sg14
F0.3166709322790324
sg15
g84
sbs(I-34
I0
tp88
g0
(g9
g2
Ntp89
Rp90
(dp91
g13
I01
sg14
F0.746520813608216
sg15
g88
sbs(I-29
I0
tp92
g0
(g9
g2
Ntp93
Rp94
(dp95
g13
I01
sg14
F-2.2218036059976543
sg15
g92
sbs(I-24
I0
tp96
g0
(g9
g2
Ntp97
Rp98
(dp99
g13
I01
sg14
F-0.6821443994884071
sg15
g96
sbs(I-3
I0
tp100
g0
(g9
g2
Ntp101
Rp102
(dp103
g13
I01
sg14
F-0.6122634154628435
sg15
g100
sbs(I43
I0
tp104
g0
(g9
g2
Ntp105
Rp106
(dp107
g13
I01
sg14
F2.4917600749267557
sg15
g104
sbs(I-39
I0
tp108
g0
(g9
g2
Ntp109
Rp110
(dp111
g13
I00
sg14
F2.4967619070762566
sg15
g108
sbssS'nodes'
p112
(dp113
I0
g0
(cneat.genes
DefaultNodeGene
p114
g2
Ntp115
Rp116
(dp117
S'activation'
p118
S'sigmoid'
p119
sS'bias'
p120
F-0.028696094747734602
sS'response'
p121
F1.0
sg15
I0
sS'aggregation'
p122
S'sum'
p123
sbsI43
g0
(g114
g2
Ntp124
Rp125
(dp126
g118
g119
sg120
F-0.6585409755536519
sg121
F1.0
sg15
I43
sg122
g123
sbsI21
g0
(g114
g2
Ntp127
Rp128
(dp129
g118
g119
sg120
F0.8923313045790029
sg121
F1.0
sg15
I21
sg122
g123
sbsI23
g0
(g114
g2
Ntp130
Rp131
(dp132
g118
g119
sg120
F-0.9460041211796596
sg121
F1.0
sg15
I23
sg122
g123
sbssg15
I127
sS'fitness'
p133
I-1000
sb.