ccopy_reg
_reconstructor
p0
(cneat.genome
DefaultGenome
p1
c__builtin__
object
p2
Ntp3
Rp4
(dp5
S'connections'
p6
(dp7
(I-23
I0
tp8
g0
(cneat.genes
DefaultConnectionGene
p9
g2
Ntp10
Rp11
(dp12
S'enabled'
p13
I01
sS'weight'
p14
F-0.4203573123638754
sS'key'
p15
g8
sbs(I-26
I7
tp16
g0
(g9
g2
Ntp17
Rp18
(dp19
g13
I01
sg14
F1.7089263003221362
sg15
g16
sbs(I-1
I0
tp20
g0
(g9
g2
Ntp21
Rp22
(dp23
g13
I01
sg14
F-0.5538152952588785
sg15
g20
sbs(I-38
I0
tp24
g0
(g9
g2
Ntp25
Rp26
(dp27
g13
I01
sg14
F0.9100246576148607
sg15
g24
sbs(I-17
I0
tp28
g0
(g9
g2
Ntp29
Rp30
(dp31
g13
I01
sg14
F-0.7407798693911148
sg15
g28
sbs(I-39
I7
tp32
g0
(g9
g2
Ntp33
Rp34
(dp35
g13
I01
sg14
F0.6824320200460207
sg15
g32
sbs(I-7
I0
tp36
g0
(g9
g2
Ntp37
Rp38
(dp39
g13
I01
sg14
F-0.6353026137842381
sg15
g36
sbs(I-19
I7
tp40
g0
(g9
g2
Ntp41
Rp42
(dp43
g13
I01
sg14
F-1.8491426579548653
sg15
g40
sbs(I-10
I7
tp44
g0
(g9
g2
Ntp45
Rp46
(dp47
g13
I01
sg14
F-0.5568223179897095
sg15
g44
sbs(I-27
I0
tp48
g0
(g9
g2
Ntp49
Rp50
(dp51
g13
I01
sg14
F-0.31849219309929366
sg15
g48
sbs(I-6
I7
tp52
g0
(g9
g2
Ntp53
Rp54
(dp55
g13
I01
sg14
F-1.7595454750972501
sg15
g52
sbs(I-36
I7
tp56
g0
(g9
g2
Ntp57
Rp58
(dp59
g13
I01
sg14
F-2.019257426600524
sg15
g56
sbs(I-23
I7
tp60
g0
(g9
g2
Ntp61
Rp62
(dp63
g13
I00
sg14
F1.104486173819461
sg15
g60
sbs(I-37
I0
tp64
g0
(g9
g2
Ntp65
Rp66
(dp67
g13
I01
sg14
F-0.9676733654112628
sg15
g64
sbs(I-3
I7
tp68
g0
(g9
g2
Ntp69
Rp70
(dp71
g13
I01
sg14
F-0.6418537246977062
sg15
g68
sbs(I-11
I0
tp72
g0
(g9
g2
Ntp73
Rp74
(dp75
g13
I01
sg14
F0.27936631529177297
sg15
g72
sbs(I-1
I7
tp76
g0
(g9
g2
Ntp77
Rp78
(dp79
g13
I01
sg14
F-1.2244373364345724
sg15
g76
sbs(I-12
I0
tp80
g0
(g9
g2
Ntp81
Rp82
(dp83
g13
I01
sg14
F3.3335228732455158
sg15
g80
sbs(I-7
I7
tp84
g0
(g9
g2
Ntp85
Rp86
(dp87
g13
I01
sg14
F0.14763319823481813
sg15
g84
sbs(I-21
I0
tp88
g0
(g9
g2
Ntp89
Rp90
(dp91
g13
I01
sg14
F2.133829946404724
sg15
g88
sbs(I-41
I0
tp92
g0
(g9
g2
Ntp93
Rp94
(dp95
g13
I00
sg14
F-1.1291617090545045
sg15
g92
sbs(I-17
I7
tp96
g0
(g9
g2
Ntp97
Rp98
(dp99
g13
I01
sg14
F-0.5499686795554071
sg15
g96
sbs(I-36
I0
tp100
g0
(g9
g2
Ntp101
Rp102
(dp103
g13
I01
sg14
F1.2844400052857472
sg15
g100
sbs(I22
I7
tp104
g0
(g9
g2
Ntp105
Rp106
(dp107
g13
I01
sg14
F0.5111433548784842
sg15
g104
sbs(I-31
I0
tp108
g0
(g9
g2
Ntp109
Rp110
(dp111
g13
I01
sg14
F-0.8336881310196601
sg15
g108
sbs(I-34
I7
tp112
g0
(g9
g2
Ntp113
Rp114
(dp115
g13
I01
sg14
F0.33171068230353845
sg15
g112
sbs(I-30
I7
tp116
g0
(g9
g2
Ntp117
Rp118
(dp119
g13
I01
sg14
F1.8950642762048058
sg15
g116
sbs(I-21
I7
tp120
g0
(g9
g2
Ntp121
Rp122
(dp123
g13
I01
sg14
F-1.6058250835710464
sg15
g120
sbs(I-20
I0
tp124
g0
(g9
g2
Ntp125
Rp126
(dp127
g13
I01
sg14
F0.16188291836578717
sg15
g124
sbs(I-14
I7
tp128
g0
(g9
g2
Ntp129
Rp130
(dp131
g13
I01
sg14
F-0.642052109228628
sg15
g128
sbs(I-5
I7
tp132
g0
(g9
g2
Ntp133
Rp134
(dp135
g13
I01
sg14
F0.5559311236191438
sg15
g132
sbs(I-4
I0
tp136
g0
(g9
g2
Ntp137
Rp138
(dp139
g13
I01
sg14
F0.8571856358112786
sg15
g136
sbs(I-40
I0
tp140
g0
(g9
g2
Ntp141
Rp142
(dp143
g13
I01
sg14
F-0.0012645909540086042
sg15
g140
sbs(I-2
I7
tp144
g0
(g9
g2
Ntp145
Rp146
(dp147
g13
I00
sg14
F0.16326144143269292
sg15
g144
sbs(I-41
I7
tp148
g0
(g9
g2
Ntp149
Rp150
(dp151
g13
I01
sg14
F0.4465675903923601
sg15
g148
sbs(I-19
I0
tp152
g0
(g9
g2
Ntp153
Rp154
(dp155
g13
I01
sg14
F-1.4199163019124732
sg15
g152
sbs(I-34
I0
tp156
g0
(g9
g2
Ntp157
Rp158
(dp159
g13
I01
sg14
F1.1158463149380624
sg15
g156
sbs(I-15
I7
tp160
g0
(g9
g2
Ntp161
Rp162
(dp163
g13
I01
sg14
F0.564137798472732
sg15
g160
sbs(I-29
I0
tp164
g0
(g9
g2
Ntp165
Rp166
(dp167
g13
I01
sg14
F1.4061952178143067
sg15
g164
sbs(I-24
I0
tp168
g0
(g9
g2
Ntp169
Rp170
(dp171
g13
I01
sg14
F0.6357346254074285
sg15
g168
sbs(I-23
I22
tp172
g0
(g9
g2
Ntp173
Rp174
(dp175
g13
I01
sg14
F1.5898392762725213
sg15
g172
sbs(I-25
I7
tp176
g0
(g9
g2
Ntp177
Rp178
(dp179
g13
I01
sg14
F2.4139778556460816
sg15
g176
sbs(I-3
I0
tp180
g0
(g9
g2
Ntp181
Rp182
(dp183
g13
I01
sg14
F2.3451630085805273
sg15
g180
sbs(I-39
I0
tp184
g0
(g9
g2
Ntp185
Rp186
(dp187
g13
I01
sg14
F1.6144849656850506
sg15
g184
sbs(I-29
I7
tp188
g0
(g9
g2
Ntp189
Rp190
(dp191
g13
I00
sg14
F1.3058764514221868
sg15
g188
sbs(I-9
I7
tp192
g0
(g9
g2
Ntp193
Rp194
(dp195
g13
I01
sg14
F-0.802292897096269
sg15
g192
sbssS'nodes'
p196
(dp197
I0
g0
(cneat.genes
DefaultNodeGene
p198
g2
Ntp199
Rp200
(dp201
S'activation'
p202
S'sigmoid'
p203
sS'bias'
p204
F0.1710165250494269
sS'response'
p205
F1.0
sg15
I0
sS'aggregation'
p206
S'sum'
p207
sbsI22
g0
(g198
g2
Ntp208
Rp209
(dp210
g202
g203
sg204
F-1.7131847079651552
sg205
F1.0
sg15
I22
sg206
g207
sbsI7
g0
(g198
g2
Ntp211
Rp212
(dp213
g202
g203
sg204
F2.38900336100163
sg205
F1.0
sg15
I7
sg206
g207
sbssg15
I91
sS'fitness'
p214
I-1000
sb.