ccopy_reg
_reconstructor
p0
(cneat.genome
DefaultGenome
p1
c__builtin__
object
p2
Ntp3
Rp4
(dp5
S'connections'
p6
(dp7
(I-13
I18
tp8
g0
(cneat.genes
DefaultConnectionGene
p9
g2
Ntp10
Rp11
(dp12
S'enabled'
p13
I01
sS'weight'
p14
F-1.7639586105692675
sS'key'
p15
g8
sbs(I-8
I18
tp16
g0
(g9
g2
Ntp17
Rp18
(dp19
g13
I01
sg14
F-1.714683277071095
sg15
g16
sbs(I-43
I0
tp20
g0
(g9
g2
Ntp21
Rp22
(dp23
g13
I01
sg14
F-1.6066733553077677
sg15
g20
sbs(I-38
I0
tp24
g0
(g9
g2
Ntp25
Rp26
(dp27
g13
I01
sg14
F0.08548799177419607
sg15
g24
sbs(I-18
I18
tp28
g0
(g9
g2
Ntp29
Rp30
(dp31
g13
I01
sg14
F1.0129376714876521
sg15
g28
sbs(I-27
I18
tp32
g0
(g9
g2
Ntp33
Rp34
(dp35
g13
I01
sg14
F1.1476372150473848
sg15
g32
sbs(I-12
I0
tp36
g0
(g9
g2
Ntp37
Rp38
(dp39
g13
I01
sg14
F-0.4651408249698556
sg15
g36
sbs(I-14
I18
tp40
g0
(g9
g2
Ntp41
Rp42
(dp43
g13
I01
sg14
F-0.406280390647346
sg15
g40
sbs(I-43
I18
tp44
g0
(g9
g2
Ntp45
Rp46
(dp47
g13
I01
sg14
F-0.7168244045093416
sg15
g44
sbs(I-16
I18
tp48
g0
(g9
g2
Ntp49
Rp50
(dp51
g13
I01
sg14
F-1.4962893209538557
sg15
g48
sbs(I-37
I0
tp52
g0
(g9
g2
Ntp53
Rp54
(dp55
g13
I01
sg14
F-1.57410229931331
sg15
g52
sbs(I-40
I0
tp56
g0
(g9
g2
Ntp57
Rp58
(dp59
g13
I01
sg14
F-1.5776605534613661
sg15
g56
sbs(I-7
I18
tp60
g0
(g9
g2
Ntp61
Rp62
(dp63
g13
I01
sg14
F-0.0032362529357895134
sg15
g60
sbs(I-37
I18
tp64
g0
(g9
g2
Ntp65
Rp66
(dp67
g13
I01
sg14
F-0.5566053579916792
sg15
g64
sbs(I-21
I0
tp68
g0
(g9
g2
Ntp69
Rp70
(dp71
g13
I01
sg14
F-0.1501276329603635
sg15
g68
sbs(I-20
I18
tp72
g0
(g9
g2
Ntp73
Rp74
(dp75
g13
I01
sg14
F-1.090804890321124
sg15
g72
sbs(I-16
I0
tp76
g0
(g9
g2
Ntp77
Rp78
(dp79
g13
I01
sg14
F-1.172635384388265
sg15
g76
sbs(I-41
I0
tp80
g0
(g9
g2
Ntp81
Rp82
(dp83
g13
I01
sg14
F0.42785841944760705
sg15
g80
sbs(I-9
I18
tp84
g0
(g9
g2
Ntp85
Rp86
(dp87
g13
I01
sg14
F-1.049515643011226
sg15
g84
sbs(I-41
I18
tp88
g0
(g9
g2
Ntp89
Rp90
(dp91
g13
I01
sg14
F-0.3309546622212563
sg15
g88
sbs(I-6
I18
tp92
g0
(g9
g2
Ntp93
Rp94
(dp95
g13
I01
sg14
F0.1532272029256554
sg15
g92
sbs(I-15
I18
tp96
g0
(g9
g2
Ntp97
Rp98
(dp99
g13
I01
sg14
F0.9153818265038726
sg15
g96
sbs(I-36
I18
tp100
g0
(g9
g2
Ntp101
Rp102
(dp103
g13
I01
sg14
F-3.1159347328851688
sg15
g100
sbs(I-25
I0
tp104
g0
(g9
g2
Ntp105
Rp106
(dp107
g13
I01
sg14
F0.7491570494236244
sg15
g104
sbs(I-14
I0
tp108
g0
(g9
g2
Ntp109
Rp110
(dp111
g13
I01
sg14
F-0.3203533831916563
sg15
g108
sbs(I-17
I0
tp112
g0
(g9
g2
Ntp113
Rp114
(dp115
g13
I01
sg14
F-0.9586650259924498
sg15
g112
sbs(I-15
I0
tp116
g0
(g9
g2
Ntp117
Rp118
(dp119
g13
I01
sg14
F-1.1148996355354788
sg15
g116
sbs(I-35
I0
tp120
g0
(g9
g2
Ntp121
Rp122
(dp123
g13
I01
sg14
F-1.2675989951698217
sg15
g120
sbs(I-30
I0
tp124
g0
(g9
g2
Ntp125
Rp126
(dp127
g13
I01
sg14
F0.584270105433274
sg15
g124
sbs(I-29
I18
tp128
g0
(g9
g2
Ntp129
Rp130
(dp131
g13
I01
sg14
F-1.278501695193762
sg15
g128
sbs(I-9
I0
tp132
g0
(g9
g2
Ntp133
Rp134
(dp135
g13
I01
sg14
F1.4029354537054954
sg15
g132
sbs(I-4
I0
tp136
g0
(g9
g2
Ntp137
Rp138
(dp139
g13
I01
sg14
F0.9647640493717281
sg15
g136
sbs(I-34
I18
tp140
g0
(g9
g2
Ntp141
Rp142
(dp143
g13
I01
sg14
F1.1341948414975225
sg15
g140
sbs(I-19
I0
tp144
g0
(g9
g2
Ntp145
Rp146
(dp147
g13
I01
sg14
F1.6137917020897274
sg15
g144
sbs(I-4
I18
tp148
g0
(g9
g2
Ntp149
Rp150
(dp151
g13
I01
sg14
F-1.7929035991134268
sg15
g148
sbs(I-35
I18
tp152
g0
(g9
g2
Ntp153
Rp154
(dp155
g13
I01
sg14
F-0.5409499235525812
sg15
g152
sbs(I-34
I0
tp156
g0
(g9
g2
Ntp157
Rp158
(dp159
g13
I01
sg14
F-0.31215314850962034
sg15
g156
sbs(I-33
I18
tp160
g0
(g9
g2
Ntp161
Rp162
(dp163
g13
I01
sg14
F0.32362295930996027
sg15
g160
sbs(I-30
I18
tp164
g0
(g9
g2
Ntp165
Rp166
(dp167
g13
I01
sg14
F0.21646728627342166
sg15
g164
sbs(I-29
I0
tp168
g0
(g9
g2
Ntp169
Rp170
(dp171
g13
I01
sg14
F1.226124970930446
sg15
g168
sbs(I-28
I18
tp172
g0
(g9
g2
Ntp173
Rp174
(dp175
g13
I01
sg14
F-0.5157419739697144
sg15
g172
sbs(I-24
I0
tp176
g0
(g9
g2
Ntp177
Rp178
(dp179
g13
I01
sg14
F0.70682920322532
sg15
g176
sbs(I-39
I0
tp180
g0
(g9
g2
Ntp181
Rp182
(dp183
g13
I01
sg14
F1.281269461537715
sg15
g180
sbs(I-28
I0
tp184
g0
(g9
g2
Ntp185
Rp186
(dp187
g13
I01
sg14
F0.43577399861347627
sg15
g184
sbssS'nodes'
p188
(dp189
I0
g0
(cneat.genes
DefaultNodeGene
p190
g2
Ntp191
Rp192
(dp193
S'activation'
p194
S'sigmoid'
p195
sS'bias'
p196
F1.3836566194377418
sS'response'
p197
F1.0
sg15
I0
sS'aggregation'
p198
S'sum'
p199
sbsI18
g0
(g190
g2
Ntp200
Rp201
(dp202
g194
g195
sg196
F1.2787210344389535
sg197
F1.0
sg15
I18
sg198
g199
sbssg15
I18
sS'fitness'
p203
I-1000
sb.