ccopy_reg
_reconstructor
p0
(cneat.genome
DefaultGenome
p1
c__builtin__
object
p2
Ntp3
Rp4
(dp5
S'connections'
p6
(dp7
(I-3
I8
tp8
g0
(cneat.genes
DefaultConnectionGene
p9
g2
Ntp10
Rp11
(dp12
S'enabled'
p13
I01
sS'weight'
p14
F0.6460060796611787
sS'key'
p15
g8
sbs(I-38
I0
tp16
g0
(g9
g2
Ntp17
Rp18
(dp19
g13
I01
sg14
F-0.606421313478277
sg15
g16
sbs(I8
I0
tp20
g0
(g9
g2
Ntp21
Rp22
(dp23
g13
I01
sg14
F0.12038532584178607
sg15
g20
sbs(I-11
I8
tp24
g0
(g9
g2
Ntp25
Rp26
(dp27
g13
I01
sg14
F0.7666649572459658
sg15
g24
sbs(I-12
I0
tp28
g0
(g9
g2
Ntp29
Rp30
(dp31
g13
I01
sg14
F-0.057438218489703985
sg15
g28
sbs(I-7
I0
tp32
g0
(g9
g2
Ntp33
Rp34
(dp35
g13
I01
sg14
F0.7227241688209971
sg15
g32
sbs(I-27
I0
tp36
g0
(g9
g2
Ntp37
Rp38
(dp39
g13
I01
sg14
F1.4481995733593664
sg15
g36
sbs(I24
I0
tp40
g0
(g9
g2
Ntp41
Rp42
(dp43
g13
I01
sg14
F-1.2493905672079717
sg15
g40
sbs(I-42
I0
tp44
g0
(g9
g2
Ntp45
Rp46
(dp47
g13
I01
sg14
F2.2387023346889547
sg15
g44
sbs(I-37
I0
tp48
g0
(g9
g2
Ntp49
Rp50
(dp51
g13
I01
sg14
F-0.6675490946763372
sg15
g48
sbs(I-6
I0
tp52
g0
(g9
g2
Ntp53
Rp54
(dp55
g13
I01
sg14
F3.786781518698592
sg15
g52
sbs(I-26
I0
tp56
g0
(g9
g2
Ntp57
Rp58
(dp59
g13
I01
sg14
F-0.9632969386479302
sg15
g56
sbs(I-21
I0
tp60
g0
(g9
g2
Ntp61
Rp62
(dp63
g13
I01
sg14
F0.43033377061471334
sg15
g60
sbs(I-41
I0
tp64
g0
(g9
g2
Ntp65
Rp66
(dp67
g13
I01
sg14
F-0.8266934133204304
sg15
g64
sbs(I-42
I8
tp68
g0
(g9
g2
Ntp69
Rp70
(dp71
g13
I01
sg14
F-0.11191336913000514
sg15
g68
sbs(I-36
I0
tp72
g0
(g9
g2
Ntp73
Rp74
(dp75
g13
I01
sg14
F-0.6977939637245401
sg15
g72
sbs(I-32
I8
tp76
g0
(g9
g2
Ntp77
Rp78
(dp79
g13
I01
sg14
F-1.4952473947765288
sg15
g76
sbs(I-9
I24
tp80
g0
(g9
g2
Ntp81
Rp82
(dp83
g13
I01
sg14
F1.2741510593855592
sg15
g80
sbs(I-25
I0
tp84
g0
(g9
g2
Ntp85
Rp86
(dp87
g13
I01
sg14
F-2.005903950754029
sg15
g84
sbs(I-26
I8
tp88
g0
(g9
g2
Ntp89
Rp90
(dp91
g13
I01
sg14
F-1.0378643165201038
sg15
g88
sbs(I-21
I8
tp92
g0
(g9
g2
Ntp93
Rp94
(dp95
g13
I01
sg14
F2.5274612286880718
sg15
g92
sbs(I-15
I0
tp96
g0
(g9
g2
Ntp97
Rp98
(dp99
g13
I01
sg14
F0.8025045233251635
sg15
g96
sbs(I-16
I8
tp100
g0
(g9
g2
Ntp101
Rp102
(dp103
g13
I01
sg14
F-0.9205033568791037
sg15
g100
sbs(I-29
I8
tp104
g0
(g9
g2
Ntp105
Rp106
(dp107
g13
I01
sg14
F0.41439118693125915
sg15
g104
sbs(I-24
I8
tp108
g0
(g9
g2
Ntp109
Rp110
(dp111
g13
I01
sg14
F0.20372451587430673
sg15
g108
sbs(I-9
I0
tp112
g0
(g9
g2
Ntp113
Rp114
(dp115
g13
I00
sg14
F-0.9961665991528057
sg15
g112
sbs(I-5
I8
tp116
g0
(g9
g2
Ntp117
Rp118
(dp119
g13
I01
sg14
F2.0825764408839595
sg15
g116
sbs(I-25
I8
tp120
g0
(g9
g2
Ntp121
Rp122
(dp123
g13
I01
sg14
F1.8448461968845304
sg15
g120
sbs(I-18
I8
tp124
g0
(g9
g2
Ntp125
Rp126
(dp127
g13
I01
sg14
F-2.5245631909646775
sg15
g124
sbs(I-20
I8
tp128
g0
(g9
g2
Ntp129
Rp130
(dp131
g13
I01
sg14
F-0.7515197700274197
sg15
g128
sbs(I-13
I8
tp132
g0
(g9
g2
Ntp133
Rp134
(dp135
g13
I01
sg14
F-1.9354077349471477
sg15
g132
sbs(I-15
I8
tp136
g0
(g9
g2
Ntp137
Rp138
(dp139
g13
I01
sg14
F0.062373831644165795
sg15
g136
sbs(I-33
I8
tp140
g0
(g9
g2
Ntp141
Rp142
(dp143
g13
I01
sg14
F-0.0681856290844226
sg15
g140
sbs(I-34
I0
tp144
g0
(g9
g2
Ntp145
Rp146
(dp147
g13
I01
sg14
F-0.8577426533888668
sg15
g144
sbs(I-28
I8
tp148
g0
(g9
g2
Ntp149
Rp150
(dp151
g13
I01
sg14
F0.615157504073736
sg15
g148
sbs(I-30
I8
tp152
g0
(g9
g2
Ntp153
Rp154
(dp155
g13
I01
sg14
F-1.2772409005106566
sg15
g152
sbs(I-23
I8
tp156
g0
(g9
g2
Ntp157
Rp158
(dp159
g13
I01
sg14
F-0.47608339344018086
sg15
g156
sbs(I-24
I0
tp160
g0
(g9
g2
Ntp161
Rp162
(dp163
g13
I01
sg14
F-1.3104219129282306
sg15
g160
sbs(I-9
I8
tp164
g0
(g9
g2
Ntp165
Rp166
(dp167
g13
I01
sg14
F1.9327035071169358
sg15
g164
sbs(I-43
I8
tp168
g0
(g9
g2
Ntp169
Rp170
(dp171
g13
I01
sg14
F-1.2466213204629724
sg15
g168
sbs(I-4
I8
tp172
g0
(g9
g2
Ntp173
Rp174
(dp175
g13
I01
sg14
F0.9980783918249164
sg15
g172
sbs(I-39
I0
tp176
g0
(g9
g2
Ntp177
Rp178
(dp179
g13
I01
sg14
F1.2769638265533043
sg15
g176
sbs(I-12
I8
tp180
g0
(g9
g2
Ntp181
Rp182
(dp183
g13
I01
sg14
F-0.8876461467691892
sg15
g180
sbs(I-13
I0
tp184
g0
(g9
g2
Ntp185
Rp186
(dp187
g13
I01
sg14
F-0.35813437922080693
sg15
g184
sbs(I-7
I8
tp188
g0
(g9
g2
Ntp189
Rp190
(dp191
g13
I01
sg14
F-0.9725668080928732
sg15
g188
sbs(I-8
I0
tp192
g0
(g9
g2
Ntp193
Rp194
(dp195
g13
I01
sg14
F1.968328182517531
sg15
g192
sbs(I-27
I8
tp196
g0
(g9
g2
Ntp197
Rp198
(dp199
g13
I01
sg14
F-0.8379963332898581
sg15
g196
sbssS'nodes'
p200
(dp201
I0
g0
(cneat.genes
DefaultNodeGene
p202
g2
Ntp203
Rp204
(dp205
S'activation'
p206
S'sigmoid'
p207
sS'bias'
p208
F-0.6736437171653187
sS'response'
p209
F1.0
sg15
I0
sS'aggregation'
p210
S'sum'
p211
sbsI8
g0
(g202
g2
Ntp212
Rp213
(dp214
g206
g207
sg208
F0.9948332692264195
sg209
F1.0
sg15
I8
sg210
g211
sbsI24
g0
(g202
g2
Ntp215
Rp216
(dp217
g206
g207
sg208
F-0.19259011726040612
sg209
F1.0
sg15
I24
sg210
g211
sbssg15
I48
sS'fitness'
p218
F-110.0
sb.