ccopy_reg
_reconstructor
p0
(cneat.genome
DefaultGenome
p1
c__builtin__
object
p2
Ntp3
Rp4
(dp5
S'connections'
p6
(dp7
(I-14
I23
tp8
g0
(cneat.genes
DefaultConnectionGene
p9
g2
Ntp10
Rp11
(dp12
S'enabled'
p13
I01
sS'weight'
p14
F1.6764964517066474
sS'key'
p15
g8
sbs(I-23
I0
tp16
g0
(g9
g2
Ntp17
Rp18
(dp19
g13
I01
sg14
F-1.1700519044641993
sg15
g16
sbs(I-26
I7
tp20
g0
(g9
g2
Ntp21
Rp22
(dp23
g13
I01
sg14
F-0.11582797290466929
sg15
g20
sbs(I-1
I0
tp24
g0
(g9
g2
Ntp25
Rp26
(dp27
g13
I01
sg14
F-1.1870329914730753
sg15
g24
sbs(I-38
I0
tp28
g0
(g9
g2
Ntp29
Rp30
(dp31
g13
I01
sg14
F-1.8956828197758782
sg15
g28
sbs(I-17
I0
tp32
g0
(g9
g2
Ntp33
Rp34
(dp35
g13
I01
sg14
F-0.5284823354755479
sg15
g32
sbs(I-39
I7
tp36
g0
(g9
g2
Ntp37
Rp38
(dp39
g13
I01
sg14
F-2.1370055667241954
sg15
g36
sbs(I-40
I0
tp40
g0
(g9
g2
Ntp41
Rp42
(dp43
g13
I01
sg14
F0.12712655436318768
sg15
g40
sbs(I-7
I0
tp44
g0
(g9
g2
Ntp45
Rp46
(dp47
g13
I01
sg14
F-0.8244697476962826
sg15
g44
sbs(I-19
I7
tp48
g0
(g9
g2
Ntp49
Rp50
(dp51
g13
I01
sg14
F-0.43006020825674185
sg15
g48
sbs(I-10
I7
tp52
g0
(g9
g2
Ntp53
Rp54
(dp55
g13
I00
sg14
F-1.8751331610931516
sg15
g52
sbs(I-27
I0
tp56
g0
(g9
g2
Ntp57
Rp58
(dp59
g13
I01
sg14
F0.7060143212640115
sg15
g56
sbs(I-6
I7
tp60
g0
(g9
g2
Ntp61
Rp62
(dp63
g13
I01
sg14
F-0.8931390025250137
sg15
g60
sbs(I-10
I28
tp64
g0
(g9
g2
Ntp65
Rp66
(dp67
g13
I01
sg14
F1.0786319370543487
sg15
g64
sbs(I-36
I7
tp68
g0
(g9
g2
Ntp69
Rp70
(dp71
g13
I01
sg14
F0.40310865358586107
sg15
g68
sbs(I23
I7
tp72
g0
(g9
g2
Ntp73
Rp74
(dp75
g13
I01
sg14
F-0.5114773099379637
sg15
g72
sbs(I-37
I0
tp76
g0
(g9
g2
Ntp77
Rp78
(dp79
g13
I01
sg14
F-0.8173414318380775
sg15
g76
sbs(I-3
I7
tp80
g0
(g9
g2
Ntp81
Rp82
(dp83
g13
I01
sg14
F0.33518363770910076
sg15
g80
sbs(I-11
I0
tp84
g0
(g9
g2
Ntp85
Rp86
(dp87
g13
I01
sg14
F-0.08407823926627045
sg15
g84
sbs(I-2
I7
tp88
g0
(g9
g2
Ntp89
Rp90
(dp91
g13
I01
sg14
F-0.3888069164159649
sg15
g88
sbs(I-7
I7
tp92
g0
(g9
g2
Ntp93
Rp94
(dp95
g13
I01
sg14
F2.3206289425440354
sg15
g92
sbs(I-21
I0
tp96
g0
(g9
g2
Ntp97
Rp98
(dp99
g13
I01
sg14
F0.31382676404171855
sg15
g96
sbs(I-41
I0
tp100
g0
(g9
g2
Ntp101
Rp102
(dp103
g13
I01
sg14
F-1.1991606332802283
sg15
g100
sbs(I-17
I7
tp104
g0
(g9
g2
Ntp105
Rp106
(dp107
g13
I01
sg14
F0.37084486314853177
sg15
g104
sbs(I-36
I0
tp108
g0
(g9
g2
Ntp109
Rp110
(dp111
g13
I01
sg14
F-0.021562841740733862
sg15
g108
sbs(I-31
I0
tp112
g0
(g9
g2
Ntp113
Rp114
(dp115
g13
I01
sg14
F-1.321778081840268
sg15
g112
sbs(I-34
I7
tp116
g0
(g9
g2
Ntp117
Rp118
(dp119
g13
I01
sg14
F-1.2511628115113103
sg15
g116
sbs(I-30
I7
tp120
g0
(g9
g2
Ntp121
Rp122
(dp123
g13
I01
sg14
F2.317499315950539
sg15
g120
sbs(I-21
I7
tp124
g0
(g9
g2
Ntp125
Rp126
(dp127
g13
I01
sg14
F-0.2486957175091412
sg15
g124
sbs(I-20
I0
tp128
g0
(g9
g2
Ntp129
Rp130
(dp131
g13
I01
sg14
F-0.9460198559930857
sg15
g128
sbs(I-14
I7
tp132
g0
(g9
g2
Ntp133
Rp134
(dp135
g13
I00
sg14
F-0.043183419459027594
sg15
g132
sbs(I-5
I7
tp136
g0
(g9
g2
Ntp137
Rp138
(dp139
g13
I01
sg14
F-1.0600724366560301
sg15
g136
sbs(I-4
I0
tp140
g0
(g9
g2
Ntp141
Rp142
(dp143
g13
I01
sg14
F-0.07644092046131518
sg15
g140
sbs(I28
I7
tp144
g0
(g9
g2
Ntp145
Rp146
(dp147
g13
I01
sg14
F-1.2784919144434264
sg15
g144
sbs(I-12
I0
tp148
g0
(g9
g2
Ntp149
Rp150
(dp151
g13
I01
sg14
F2.64342843004447
sg15
g148
sbs(I-1
I7
tp152
g0
(g9
g2
Ntp153
Rp154
(dp155
g13
I01
sg14
F3.6977408725189416
sg15
g152
sbs(I-41
I7
tp156
g0
(g9
g2
Ntp157
Rp158
(dp159
g13
I01
sg14
F1.4764068841005844
sg15
g156
sbs(I-19
I0
tp160
g0
(g9
g2
Ntp161
Rp162
(dp163
g13
I01
sg14
F-0.25323714374871037
sg15
g160
sbs(I-34
I0
tp164
g0
(g9
g2
Ntp165
Rp166
(dp167
g13
I01
sg14
F0.580286102425161
sg15
g164
sbs(I-15
I7
tp168
g0
(g9
g2
Ntp169
Rp170
(dp171
g13
I01
sg14
F0.10366729232263694
sg15
g168
sbs(I-29
I0
tp172
g0
(g9
g2
Ntp173
Rp174
(dp175
g13
I01
sg14
F-0.9326812833314367
sg15
g172
sbs(I-24
I0
tp176
g0
(g9
g2
Ntp177
Rp178
(dp179
g13
I01
sg14
F-0.5688101598661679
sg15
g176
sbs(I-25
I7
tp180
g0
(g9
g2
Ntp181
Rp182
(dp183
g13
I01
sg14
F0.0480825721675503
sg15
g180
sbs(I-3
I0
tp184
g0
(g9
g2
Ntp185
Rp186
(dp187
g13
I01
sg14
F0.3984541574889159
sg15
g184
sbs(I-39
I0
tp188
g0
(g9
g2
Ntp189
Rp190
(dp191
g13
I01
sg14
F1.702402649306989
sg15
g188
sbs(I-29
I7
tp192
g0
(g9
g2
Ntp193
Rp194
(dp195
g13
I01
sg14
F-1.7674334023825786
sg15
g192
sbs(I-9
I7
tp196
g0
(g9
g2
Ntp197
Rp198
(dp199
g13
I01
sg14
F1.5218627399851372
sg15
g196
sbssS'nodes'
p200
(dp201
I0
g0
(cneat.genes
DefaultNodeGene
p202
g2
Ntp203
Rp204
(dp205
S'activation'
p206
S'sigmoid'
p207
sS'bias'
p208
F-1.1113339374488507
sS'response'
p209
F1.0
sg15
I0
sS'aggregation'
p210
S'sum'
p211
sbsI7
g0
(g202
g2
Ntp212
Rp213
(dp214
g206
g207
sg208
F2.085403322871988
sg209
F1.0
sg15
I7
sg210
g211
sbsI28
g0
(g202
g2
Ntp215
Rp216
(dp217
g206
g207
sg208
F1.0627853845759354
sg209
F1.0
sg15
I28
sg210
g211
sbsI23
g0
(g202
g2
Ntp218
Rp219
(dp220
g206
g207
sg208
F-0.01780151641256006
sg209
F1.0
sg15
I23
sg210
g211
sbssg15
I73
sS'fitness'
p221
F16.8
sb.