ccopy_reg
_reconstructor
p0
(cneat.genome
DefaultGenome
p1
c__builtin__
object
p2
Ntp3
Rp4
(dp5
S'connections'
p6
(dp7
(I-6
I15
tp8
g0
(cneat.genes
DefaultConnectionGene
p9
g2
Ntp10
Rp11
(dp12
S'enabled'
p13
I01
sS'weight'
p14
F0.049649419778357164
sS'key'
p15
g8
sbs(I-23
I0
tp16
g0
(g9
g2
Ntp17
Rp18
(dp19
g13
I01
sg14
F1.2546426292283401
sg15
g16
sbs(I-25
I15
tp20
g0
(g9
g2
Ntp21
Rp22
(dp23
g13
I01
sg14
F-1.4526311283609141
sg15
g20
sbs(I-32
I15
tp24
g0
(g9
g2
Ntp25
Rp26
(dp27
g13
I01
sg14
F-0.5243685459851279
sg15
g24
sbs(I-23
I15
tp28
g0
(g9
g2
Ntp29
Rp30
(dp31
g13
I01
sg14
F2.6079772889123607
sg15
g28
sbs(I-38
I0
tp32
g0
(g9
g2
Ntp33
Rp34
(dp35
g13
I01
sg14
F0.8006620748134545
sg15
g32
sbs(I-42
I15
tp36
g0
(g9
g2
Ntp37
Rp38
(dp39
g13
I01
sg14
F-0.1670299448038402
sg15
g36
sbs(I-27
I15
tp40
g0
(g9
g2
Ntp41
Rp42
(dp43
g13
I01
sg14
F1.0072692525208957
sg15
g40
sbs(I-40
I15
tp44
g0
(g9
g2
Ntp45
Rp46
(dp47
g13
I01
sg14
F-0.011438624667708572
sg15
g44
sbs(I-12
I0
tp48
g0
(g9
g2
Ntp49
Rp50
(dp51
g13
I01
sg14
F0.5694238136472093
sg15
g48
sbs(I-9
I15
tp52
g0
(g9
g2
Ntp53
Rp54
(dp55
g13
I01
sg14
F-1.4358544501760768
sg15
g52
sbs(I-26
I15
tp56
g0
(g9
g2
Ntp57
Rp58
(dp59
g13
I01
sg14
F0.5042409370348718
sg15
g56
sbs(I-17
I15
tp60
g0
(g9
g2
Ntp61
Rp62
(dp63
g13
I01
sg14
F0.638850165807133
sg15
g60
sbs(I-2
I0
tp64
g0
(g9
g2
Ntp65
Rp66
(dp67
g13
I01
sg14
F0.8692018909075089
sg15
g64
sbs(I-34
I15
tp68
g0
(g9
g2
Ntp69
Rp70
(dp71
g13
I01
sg14
F0.09295921337601215
sg15
g68
sbs(I-6
I0
tp72
g0
(g9
g2
Ntp73
Rp74
(dp75
g13
I01
sg14
F-0.6287616971763325
sg15
g72
sbs(I15
I0
tp76
g0
(g9
g2
Ntp77
Rp78
(dp79
g13
I01
sg14
F0.48637028405495253
sg15
g76
sbs(I-26
I0
tp80
g0
(g9
g2
Ntp81
Rp82
(dp83
g13
I01
sg14
F-0.32289183258846543
sg15
g80
sbs(I-8
I15
tp84
g0
(g9
g2
Ntp85
Rp86
(dp87
g13
I01
sg14
F-2.2533203750810933
sg15
g84
sbs(I-1
I0
tp88
g0
(g9
g2
Ntp89
Rp90
(dp91
g13
I01
sg14
F-0.5329076694937591
sg15
g88
sbs(I-16
I0
tp92
g0
(g9
g2
Ntp93
Rp94
(dp95
g13
I01
sg14
F1.2299570372323292
sg15
g92
sbs(I-18
I15
tp96
g0
(g9
g2
Ntp97
Rp98
(dp99
g13
I01
sg14
F-0.08297860848303468
sg15
g96
sbs(I-36
I0
tp100
g0
(g9
g2
Ntp101
Rp102
(dp103
g13
I01
sg14
F0.5917067691612582
sg15
g100
sbs(I-10
I0
tp104
g0
(g9
g2
Ntp105
Rp106
(dp107
g13
I01
sg14
F1.0622765784853483
sg15
g104
sbs(I-5
I0
tp108
g0
(g9
g2
Ntp109
Rp110
(dp111
g13
I01
sg14
F-0.632689811408556
sg15
g108
sbs(I-20
I15
tp112
g0
(g9
g2
Ntp113
Rp114
(dp115
g13
I01
sg14
F-1.0760162147708503
sg15
g112
sbs(I-25
I0
tp116
g0
(g9
g2
Ntp117
Rp118
(dp119
g13
I01
sg14
F0.5417789794030524
sg15
g116
sbs(I-20
I0
tp120
g0
(g9
g2
Ntp121
Rp122
(dp123
g13
I01
sg14
F-1.2681122042103135
sg15
g120
sbs(I-17
I0
tp124
g0
(g9
g2
Ntp125
Rp126
(dp127
g13
I01
sg14
F0.9640472522779533
sg15
g124
sbs(I-28
I15
tp128
g0
(g9
g2
Ntp129
Rp130
(dp131
g13
I01
sg14
F0.8370416834335471
sg15
g128
sbs(I-35
I0
tp132
g0
(g9
g2
Ntp133
Rp134
(dp135
g13
I01
sg14
F0.0380761366342522
sg15
g132
sbs(I-9
I0
tp136
g0
(g9
g2
Ntp137
Rp138
(dp139
g13
I01
sg14
F-0.15212460178042003
sg15
g136
sbs(I-21
I15
tp140
g0
(g9
g2
Ntp141
Rp142
(dp143
g13
I01
sg14
F-1.7378297371798586
sg15
g140
sbs(I-40
I0
tp144
g0
(g9
g2
Ntp145
Rp146
(dp147
g13
I01
sg14
F-0.40844719418876374
sg15
g144
sbs(I-14
I15
tp148
g0
(g9
g2
Ntp149
Rp150
(dp151
g13
I01
sg14
F0.3759886056991585
sg15
g148
sbs(I-24
I0
tp152
g0
(g9
g2
Ntp153
Rp154
(dp155
g13
I01
sg14
F-2.1819539645025348
sg15
g152
sbs(I-31
I15
tp156
g0
(g9
g2
Ntp157
Rp158
(dp159
g13
I01
sg14
F-0.9780610194000846
sg15
g156
sbs(I-22
I15
tp160
g0
(g9
g2
Ntp161
Rp162
(dp163
g13
I01
sg14
F-0.751916429073433
sg15
g160
sbs(I-29
I0
tp164
g0
(g9
g2
Ntp165
Rp166
(dp167
g13
I01
sg14
F0.8306469430204975
sg15
g164
sbs(I-41
I15
tp168
g0
(g9
g2
Ntp169
Rp170
(dp171
g13
I01
sg14
F0.17338446710336475
sg15
g168
sbs(I-39
I15
tp172
g0
(g9
g2
Ntp173
Rp174
(dp175
g13
I01
sg14
F-0.2926841470353798
sg15
g172
sbs(I-13
I0
tp176
g0
(g9
g2
Ntp177
Rp178
(dp179
g13
I01
sg14
F-0.24665776977291892
sg15
g176
sbs(I-15
I15
tp180
g0
(g9
g2
Ntp181
Rp182
(dp183
g13
I01
sg14
F0.18201536514850183
sg15
g180
sbs(I-28
I0
tp184
g0
(g9
g2
Ntp185
Rp186
(dp187
g13
I01
sg14
F-0.9479658133936875
sg15
g184
sbssS'nodes'
p188
(dp189
I0
g0
(cneat.genes
DefaultNodeGene
p190
g2
Ntp191
Rp192
(dp193
S'activation'
p194
S'sigmoid'
p195
sS'bias'
p196
F0.6048617883528167
sS'response'
p197
F1.0
sg15
I0
sS'aggregation'
p198
S'sum'
p199
sbsI15
g0
(g190
g2
Ntp200
Rp201
(dp202
g194
g195
sg196
F-1.1318088437209857
sg197
F1.0
sg15
I15
sg198
g199
sbssg15
I15
sS'fitness'
p203
I-1000
sb.