ccopy_reg
_reconstructor
p0
(cneat.genome
DefaultGenome
p1
c__builtin__
object
p2
Ntp3
Rp4
(dp5
S'connections'
p6
(dp7
(I-23
I0
tp8
g0
(cneat.genes
DefaultConnectionGene
p9
g2
Ntp10
Rp11
(dp12
S'enabled'
p13
I01
sS'weight'
p14
F0.1424196988102156
sS'key'
p15
g8
sbs(I-26
I7
tp16
g0
(g9
g2
Ntp17
Rp18
(dp19
g13
I01
sg14
F1.3855651549905956
sg15
g16
sbs(I-1
I0
tp20
g0
(g9
g2
Ntp21
Rp22
(dp23
g13
I01
sg14
F-0.03842891970837381
sg15
g20
sbs(I-38
I0
tp24
g0
(g9
g2
Ntp25
Rp26
(dp27
g13
I01
sg14
F-0.4711255574678192
sg15
g24
sbs(I-17
I0
tp28
g0
(g9
g2
Ntp29
Rp30
(dp31
g13
I01
sg14
F-1.1041525755757682
sg15
g28
sbs(I-39
I7
tp32
g0
(g9
g2
Ntp33
Rp34
(dp35
g13
I01
sg14
F0.4480509684134236
sg15
g32
sbs(I-40
I0
tp36
g0
(g9
g2
Ntp37
Rp38
(dp39
g13
I01
sg14
F-0.03678161400269636
sg15
g36
sbs(I-7
I0
tp40
g0
(g9
g2
Ntp41
Rp42
(dp43
g13
I01
sg14
F0.7489734733967823
sg15
g40
sbs(I-19
I7
tp44
g0
(g9
g2
Ntp45
Rp46
(dp47
g13
I01
sg14
F-1.8844818374744172
sg15
g44
sbs(I-10
I7
tp48
g0
(g9
g2
Ntp49
Rp50
(dp51
g13
I01
sg14
F-2.1232630378244375
sg15
g48
sbs(I-27
I0
tp52
g0
(g9
g2
Ntp53
Rp54
(dp55
g13
I01
sg14
F-0.6305293176883089
sg15
g52
sbs(I-6
I7
tp56
g0
(g9
g2
Ntp57
Rp58
(dp59
g13
I01
sg14
F-0.768178580264705
sg15
g56
sbs(I-36
I7
tp60
g0
(g9
g2
Ntp61
Rp62
(dp63
g13
I01
sg14
F-0.3458776802563057
sg15
g60
sbs(I-23
I7
tp64
g0
(g9
g2
Ntp65
Rp66
(dp67
g13
I00
sg14
F1.1247580058718498
sg15
g64
sbs(I-37
I0
tp68
g0
(g9
g2
Ntp69
Rp70
(dp71
g13
I01
sg14
F-2.0086488975204633
sg15
g68
sbs(I-3
I7
tp72
g0
(g9
g2
Ntp73
Rp74
(dp75
g13
I01
sg14
F-1.8151831615222294
sg15
g72
sbs(I-11
I0
tp76
g0
(g9
g2
Ntp77
Rp78
(dp79
g13
I01
sg14
F0.8129021191530068
sg15
g76
sbs(I-2
I7
tp80
g0
(g9
g2
Ntp81
Rp82
(dp83
g13
I00
sg14
F0.39091382375280187
sg15
g80
sbs(I-7
I7
tp84
g0
(g9
g2
Ntp85
Rp86
(dp87
g13
I01
sg14
F0.6514725466486739
sg15
g84
sbs(I-21
I0
tp88
g0
(g9
g2
Ntp89
Rp90
(dp91
g13
I01
sg14
F1.6610540512462113
sg15
g88
sbs(I-41
I0
tp92
g0
(g9
g2
Ntp93
Rp94
(dp95
g13
I00
sg14
F0.2445421017313671
sg15
g92
sbs(I-17
I7
tp96
g0
(g9
g2
Ntp97
Rp98
(dp99
g13
I01
sg14
F-0.9694168646615973
sg15
g96
sbs(I-36
I0
tp100
g0
(g9
g2
Ntp101
Rp102
(dp103
g13
I01
sg14
F0.6667194262735779
sg15
g100
sbs(I22
I7
tp104
g0
(g9
g2
Ntp105
Rp106
(dp107
g13
I01
sg14
F0.11343993606725504
sg15
g104
sbs(I-31
I0
tp108
g0
(g9
g2
Ntp109
Rp110
(dp111
g13
I01
sg14
F-0.9014545129462962
sg15
g108
sbs(I-34
I7
tp112
g0
(g9
g2
Ntp113
Rp114
(dp115
g13
I01
sg14
F-0.5563614911339256
sg15
g112
sbs(I-30
I7
tp116
g0
(g9
g2
Ntp117
Rp118
(dp119
g13
I01
sg14
F1.9771638150408646
sg15
g116
sbs(I-21
I7
tp120
g0
(g9
g2
Ntp121
Rp122
(dp123
g13
I01
sg14
F-1.312666436419637
sg15
g120
sbs(I-20
I0
tp124
g0
(g9
g2
Ntp125
Rp126
(dp127
g13
I01
sg14
F-1.1362869686053856
sg15
g124
sbs(I-14
I7
tp128
g0
(g9
g2
Ntp129
Rp130
(dp131
g13
I01
sg14
F-0.8714146787552403
sg15
g128
sbs(I-5
I7
tp132
g0
(g9
g2
Ntp133
Rp134
(dp135
g13
I01
sg14
F0.5155542268401723
sg15
g132
sbs(I-4
I0
tp136
g0
(g9
g2
Ntp137
Rp138
(dp139
g13
I01
sg14
F0.2990550812915461
sg15
g136
sbs(I-12
I0
tp140
g0
(g9
g2
Ntp141
Rp142
(dp143
g13
I01
sg14
F3.0137302935153394
sg15
g140
sbs(I-1
I7
tp144
g0
(g9
g2
Ntp145
Rp146
(dp147
g13
I01
sg14
F-0.32432274419430307
sg15
g144
sbs(I-41
I7
tp148
g0
(g9
g2
Ntp149
Rp150
(dp151
g13
I01
sg14
F0.33637925844354494
sg15
g148
sbs(I-19
I0
tp152
g0
(g9
g2
Ntp153
Rp154
(dp155
g13
I01
sg14
F-1.4073913793060293
sg15
g152
sbs(I-34
I0
tp156
g0
(g9
g2
Ntp157
Rp158
(dp159
g13
I01
sg14
F1.9912868440048341
sg15
g156
sbs(I-15
I7
tp160
g0
(g9
g2
Ntp161
Rp162
(dp163
g13
I01
sg14
F0.30275539311705224
sg15
g160
sbs(I-29
I0
tp164
g0
(g9
g2
Ntp165
Rp166
(dp167
g13
I01
sg14
F0.11254112254790527
sg15
g164
sbs(I-24
I0
tp168
g0
(g9
g2
Ntp169
Rp170
(dp171
g13
I01
sg14
F1.1981255153971393
sg15
g168
sbs(I-23
I22
tp172
g0
(g9
g2
Ntp173
Rp174
(dp175
g13
I01
sg14
F2.1538120458858065
sg15
g172
sbs(I-25
I7
tp176
g0
(g9
g2
Ntp177
Rp178
(dp179
g13
I01
sg14
F2.0007325526567534
sg15
g176
sbs(I-3
I0
tp180
g0
(g9
g2
Ntp181
Rp182
(dp183
g13
I01
sg14
F1.5627330384762121
sg15
g180
sbs(I-39
I0
tp184
g0
(g9
g2
Ntp185
Rp186
(dp187
g13
I01
sg14
F0.5730822327026092
sg15
g184
sbs(I-29
I7
tp188
g0
(g9
g2
Ntp189
Rp190
(dp191
g13
I01
sg14
F0.6173554420661393
sg15
g188
sbs(I-9
I7
tp192
g0
(g9
g2
Ntp193
Rp194
(dp195
g13
I01
sg14
F-1.3837605049508415
sg15
g192
sbssS'nodes'
p196
(dp197
I0
g0
(cneat.genes
DefaultNodeGene
p198
g2
Ntp199
Rp200
(dp201
S'activation'
p202
S'sigmoid'
p203
sS'bias'
p204
F0.1612102904253243
sS'response'
p205
F1.0
sg15
I0
sS'aggregation'
p206
S'sum'
p207
sbsI22
g0
(g198
g2
Ntp208
Rp209
(dp210
g202
g203
sg204
F-0.8384998019352873
sg205
F1.0
sg15
I22
sg206
g207
sbsI7
g0
(g198
g2
Ntp211
Rp212
(dp213
g202
g203
sg204
F2.5774563241481507
sg205
F1.0
sg15
I7
sg206
g207
sbssg15
I75
sS'fitness'
p214
I-1000
sb.