ccopy_reg
_reconstructor
p0
(cneat.genome
DefaultGenome
p1
c__builtin__
object
p2
Ntp3
Rp4
(dp5
S'connections'
p6
(dp7
(I-3
I8
tp8
g0
(cneat.genes
DefaultConnectionGene
p9
g2
Ntp10
Rp11
(dp12
S'enabled'
p13
I01
sS'weight'
p14
F0.6460060796611787
sS'key'
p15
g8
sbs(I-38
I0
tp16
g0
(g9
g2
Ntp17
Rp18
(dp19
g13
I01
sg14
F-0.606421313478277
sg15
g16
sbs(I8
I0
tp20
g0
(g9
g2
Ntp21
Rp22
(dp23
g13
I01
sg14
F-0.03400417200404731
sg15
g20
sbs(I-11
I8
tp24
g0
(g9
g2
Ntp25
Rp26
(dp27
g13
I01
sg14
F0.4043427146040209
sg15
g24
sbs(I-12
I0
tp28
g0
(g9
g2
Ntp29
Rp30
(dp31
g13
I01
sg14
F-0.30798956211349093
sg15
g28
sbs(I-7
I0
tp32
g0
(g9
g2
Ntp33
Rp34
(dp35
g13
I01
sg14
F0.28593340888064467
sg15
g32
sbs(I-27
I0
tp36
g0
(g9
g2
Ntp37
Rp38
(dp39
g13
I01
sg14
F1.4481995733593664
sg15
g36
sbs(I-42
I0
tp40
g0
(g9
g2
Ntp41
Rp42
(dp43
g13
I01
sg14
F1.7650822434569844
sg15
g40
sbs(I-37
I0
tp44
g0
(g9
g2
Ntp45
Rp46
(dp47
g13
I01
sg14
F-1.1341424799555686
sg15
g44
sbs(I-6
I0
tp48
g0
(g9
g2
Ntp49
Rp50
(dp51
g13
I01
sg14
F2.3169870056006743
sg15
g48
sbs(I-26
I0
tp52
g0
(g9
g2
Ntp53
Rp54
(dp55
g13
I01
sg14
F0.0035524705408825352
sg15
g52
sbs(I-21
I0
tp56
g0
(g9
g2
Ntp57
Rp58
(dp59
g13
I01
sg14
F1.1673632696062057
sg15
g56
sbs(I-41
I0
tp60
g0
(g9
g2
Ntp61
Rp62
(dp63
g13
I01
sg14
F-0.7468378402259606
sg15
g60
sbs(I-42
I8
tp64
g0
(g9
g2
Ntp65
Rp66
(dp67
g13
I01
sg14
F0.25425662045645037
sg15
g64
sbs(I-36
I0
tp68
g0
(g9
g2
Ntp69
Rp70
(dp71
g13
I01
sg14
F-1.08584467138851
sg15
g68
sbs(I-32
I8
tp72
g0
(g9
g2
Ntp73
Rp74
(dp75
g13
I01
sg14
F-0.6739775930546711
sg15
g72
sbs(I-25
I0
tp76
g0
(g9
g2
Ntp77
Rp78
(dp79
g13
I01
sg14
F-1.4378963627295556
sg15
g76
sbs(I-26
I8
tp80
g0
(g9
g2
Ntp81
Rp82
(dp83
g13
I01
sg14
F-0.43160671971015035
sg15
g80
sbs(I-21
I8
tp84
g0
(g9
g2
Ntp85
Rp86
(dp87
g13
I01
sg14
F1.6062811835293413
sg15
g84
sbs(I-15
I0
tp88
g0
(g9
g2
Ntp89
Rp90
(dp91
g13
I01
sg14
F0.44980033470677966
sg15
g88
sbs(I-16
I8
tp92
g0
(g9
g2
Ntp93
Rp94
(dp95
g13
I01
sg14
F-0.9626616700548888
sg15
g92
sbs(I-29
I8
tp96
g0
(g9
g2
Ntp97
Rp98
(dp99
g13
I01
sg14
F0.1532704236050042
sg15
g96
sbs(I-24
I8
tp100
g0
(g9
g2
Ntp101
Rp102
(dp103
g13
I01
sg14
F0.11441685029650916
sg15
g100
sbs(I-9
I0
tp104
g0
(g9
g2
Ntp105
Rp106
(dp107
g13
I01
sg14
F-1.71634409139904
sg15
g104
sbs(I-5
I8
tp108
g0
(g9
g2
Ntp109
Rp110
(dp111
g13
I01
sg14
F2.3944420903636576
sg15
g108
sbs(I-25
I8
tp112
g0
(g9
g2
Ntp113
Rp114
(dp115
g13
I01
sg14
F0.9408485530120188
sg15
g112
sbs(I-18
I8
tp116
g0
(g9
g2
Ntp117
Rp118
(dp119
g13
I01
sg14
F-2.0400014420297783
sg15
g116
sbs(I-20
I8
tp120
g0
(g9
g2
Ntp121
Rp122
(dp123
g13
I01
sg14
F-0.5559137846246389
sg15
g120
sbs(I-13
I8
tp124
g0
(g9
g2
Ntp125
Rp126
(dp127
g13
I01
sg14
F-1.1279746389869518
sg15
g124
sbs(I-15
I8
tp128
g0
(g9
g2
Ntp129
Rp130
(dp131
g13
I01
sg14
F-0.13670838769239807
sg15
g128
sbs(I-33
I8
tp132
g0
(g9
g2
Ntp133
Rp134
(dp135
g13
I01
sg14
F-0.6213692413121962
sg15
g132
sbs(I-34
I0
tp136
g0
(g9
g2
Ntp137
Rp138
(dp139
g13
I01
sg14
F-0.6794758879608144
sg15
g136
sbs(I-28
I8
tp140
g0
(g9
g2
Ntp141
Rp142
(dp143
g13
I01
sg14
F0.615157504073736
sg15
g140
sbs(I-30
I8
tp144
g0
(g9
g2
Ntp145
Rp146
(dp147
g13
I01
sg14
F-0.662678999687058
sg15
g144
sbs(I-23
I8
tp148
g0
(g9
g2
Ntp149
Rp150
(dp151
g13
I01
sg14
F-0.47870015545684086
sg15
g148
sbs(I-24
I0
tp152
g0
(g9
g2
Ntp153
Rp154
(dp155
g13
I01
sg14
F-1.3104219129282306
sg15
g152
sbs(I-9
I8
tp156
g0
(g9
g2
Ntp157
Rp158
(dp159
g13
I01
sg14
F2.2866741519754092
sg15
g156
sbs(I-43
I8
tp160
g0
(g9
g2
Ntp161
Rp162
(dp163
g13
I01
sg14
F-1.2466213204629724
sg15
g160
sbs(I-4
I8
tp164
g0
(g9
g2
Ntp165
Rp166
(dp167
g13
I01
sg14
F0.4369518456211987
sg15
g164
sbs(I-39
I0
tp168
g0
(g9
g2
Ntp169
Rp170
(dp171
g13
I01
sg14
F0.5474591329171525
sg15
g168
sbs(I-12
I8
tp172
g0
(g9
g2
Ntp173
Rp174
(dp175
g13
I01
sg14
F-0.5970339132537688
sg15
g172
sbs(I-13
I0
tp176
g0
(g9
g2
Ntp177
Rp178
(dp179
g13
I01
sg14
F0.22151028813231144
sg15
g176
sbs(I-7
I8
tp180
g0
(g9
g2
Ntp181
Rp182
(dp183
g13
I01
sg14
F-0.42472785063947877
sg15
g180
sbs(I-8
I0
tp184
g0
(g9
g2
Ntp185
Rp186
(dp187
g13
I01
sg14
F2.232258715676598
sg15
g184
sbs(I-27
I8
tp188
g0
(g9
g2
Ntp189
Rp190
(dp191
g13
I01
sg14
F0.6103003347499563
sg15
g188
sbssS'nodes'
p192
(dp193
I0
g0
(cneat.genes
DefaultNodeGene
p194
g2
Ntp195
Rp196
(dp197
S'activation'
p198
S'sigmoid'
p199
sS'bias'
p200
F-0.8493262855334939
sS'response'
p201
F1.0
sg15
I0
sS'aggregation'
p202
S'sum'
p203
sbsI8
g0
(g194
g2
Ntp204
Rp205
(dp206
g198
g199
sg200
F0.7220899947739287
sg201
F1.0
sg15
I8
sg202
g203
sbssg15
I36
sS'fitness'
p207
F-112.2
sb.