ccopy_reg
_reconstructor
p0
(cneat.genome
DefaultGenome
p1
c__builtin__
object
p2
Ntp3
Rp4
(dp5
S'connections'
p6
(dp7
(I-14
I23
tp8
g0
(cneat.genes
DefaultConnectionGene
p9
g2
Ntp10
Rp11
(dp12
S'enabled'
p13
I00
sS'weight'
p14
F2.3369693707296872
sS'key'
p15
g8
sbs(I-23
I0
tp16
g0
(g9
g2
Ntp17
Rp18
(dp19
g13
I01
sg14
F-3.2738298767756784
sg15
g16
sbs(I-1
I0
tp20
g0
(g9
g2
Ntp21
Rp22
(dp23
g13
I01
sg14
F2.0437652396207584
sg15
g20
sbs(I-38
I0
tp24
g0
(g9
g2
Ntp25
Rp26
(dp27
g13
I01
sg14
F-1.0549963828006517
sg15
g24
sbs(I-17
I0
tp28
g0
(g9
g2
Ntp29
Rp30
(dp31
g13
I01
sg14
F-0.7291374034284942
sg15
g28
sbs(I-12
I0
tp32
g0
(g9
g2
Ntp33
Rp34
(dp35
g13
I01
sg14
F1.9093928885721891
sg15
g32
sbs(I-7
I0
tp36
g0
(g9
g2
Ntp37
Rp38
(dp39
g13
I01
sg14
F-1.3310041902845022
sg15
g36
sbs(I-27
I0
tp40
g0
(g9
g2
Ntp41
Rp42
(dp43
g13
I01
sg14
F1.226559469078788
sg15
g40
sbs(I-37
I0
tp44
g0
(g9
g2
Ntp45
Rp46
(dp47
g13
I01
sg14
F-1.7948323032175408
sg15
g44
sbs(I-11
I0
tp48
g0
(g9
g2
Ntp49
Rp50
(dp51
g13
I01
sg14
F-0.8394316595747071
sg15
g48
sbs(I-21
I0
tp52
g0
(g9
g2
Ntp53
Rp54
(dp55
g13
I01
sg14
F2.032019309080446
sg15
g52
sbs(I-41
I0
tp56
g0
(g9
g2
Ntp57
Rp58
(dp59
g13
I00
sg14
F-1.512474208078142
sg15
g56
sbs(I-36
I0
tp60
g0
(g9
g2
Ntp61
Rp62
(dp63
g13
I01
sg14
F1.0751659162778238
sg15
g60
sbs(I-14
I21
tp64
g0
(g9
g2
Ntp65
Rp66
(dp67
g13
I00
sg14
F1.0712277149665657
sg15
g64
sbs(I-20
I0
tp68
g0
(g9
g2
Ntp69
Rp70
(dp71
g13
I01
sg14
F0.8035724260276023
sg15
g68
sbs(I-14
I38
tp72
g0
(g9
g2
Ntp73
Rp74
(dp75
g13
I01
sg14
F1.0
sg15
g72
sbs(I-4
I0
tp76
g0
(g9
g2
Ntp77
Rp78
(dp79
g13
I01
sg14
F0.03717080901121106
sg15
g76
sbs(I-40
I0
tp80
g0
(g9
g2
Ntp81
Rp82
(dp83
g13
I01
sg14
F-0.3421823532813049
sg15
g80
sbs(I-31
I0
tp84
g0
(g9
g2
Ntp85
Rp86
(dp87
g13
I01
sg14
F-3.3401426513797854
sg15
g84
sbs(I-19
I0
tp88
g0
(g9
g2
Ntp89
Rp90
(dp91
g13
I01
sg14
F1.5122353703089817
sg15
g88
sbs(I-34
I0
tp92
g0
(g9
g2
Ntp93
Rp94
(dp95
g13
I01
sg14
F0.482953158806689
sg15
g92
sbs(I-24
I23
tp96
g0
(g9
g2
Ntp97
Rp98
(dp99
g13
I01
sg14
F1.4589558389129518
sg15
g96
sbs(I-29
I0
tp100
g0
(g9
g2
Ntp101
Rp102
(dp103
g13
I01
sg14
F-1.240313186839436
sg15
g100
sbs(I-24
I0
tp104
g0
(g9
g2
Ntp105
Rp106
(dp107
g13
I01
sg14
F-0.993922666180546
sg15
g104
sbs(I-3
I0
tp108
g0
(g9
g2
Ntp109
Rp110
(dp111
g13
I01
sg14
F-0.3803602765642041
sg15
g108
sbs(I-39
I0
tp112
g0
(g9
g2
Ntp113
Rp114
(dp115
g13
I01
sg14
F0.3728677070504704
sg15
g112
sbs(I38
I23
tp116
g0
(g9
g2
Ntp117
Rp118
(dp119
g13
I01
sg14
F2.568189788078643
sg15
g116
sbssS'nodes'
p120
(dp121
I0
g0
(cneat.genes
DefaultNodeGene
p122
g2
Ntp123
Rp124
(dp125
S'activation'
p126
S'sigmoid'
p127
sS'bias'
p128
F-1.2271226854184563
sS'response'
p129
F1.0
sg15
I0
sS'aggregation'
p130
S'sum'
p131
sbsI21
g0
(g122
g2
Ntp132
Rp133
(dp134
g126
g127
sg128
F0.4543140497648596
sg129
F1.0
sg15
I21
sg130
g131
sbsI38
g0
(g122
g2
Ntp135
Rp136
(dp137
g126
g127
sg128
F-0.3843362148759789
sg129
F1.0
sg15
I38
sg130
g131
sbsI23
g0
(g122
g2
Ntp138
Rp139
(dp140
g126
g127
sg128
F-0.41908615879049765
sg129
F1.0
sg15
I23
sg130
g131
sbssg15
I117
sS'fitness'
p141
F16.6
sb.