ccopy_reg
_reconstructor
p0
(cneat.genome
DefaultGenome
p1
c__builtin__
object
p2
Ntp3
Rp4
(dp5
S'connections'
p6
(dp7
(I-4
I5
tp8
g0
(cneat.genes
DefaultConnectionGene
p9
g2
Ntp10
Rp11
(dp12
S'enabled'
p13
I01
sS'weight'
p14
F1.4059998306049537
sS'key'
p15
g8
sbs(I-16
I0
tp16
g0
(g9
g2
Ntp17
Rp18
(dp19
g13
I01
sg14
F0.7690785207140618
sg15
g16
sbs(I-23
I0
tp20
g0
(g9
g2
Ntp21
Rp22
(dp23
g13
I01
sg14
F1.3790322915586912
sg15
g20
sbs(I-1
I0
tp24
g0
(g9
g2
Ntp25
Rp26
(dp27
g13
I01
sg14
F-0.1309624186291784
sg15
g24
sbs(I-17
I0
tp28
g0
(g9
g2
Ntp29
Rp30
(dp31
g13
I01
sg14
F0.11969470847290475
sg15
g28
sbs(I-12
I0
tp32
g0
(g9
g2
Ntp33
Rp34
(dp35
g13
I01
sg14
F0.6411152881939401
sg15
g32
sbs(I-31
I5
tp36
g0
(g9
g2
Ntp37
Rp38
(dp39
g13
I01
sg14
F-0.4179490430264517
sg15
g36
sbs(I-1
I5
tp40
g0
(g9
g2
Ntp41
Rp42
(dp43
g13
I01
sg14
F-0.74132703865351
sg15
g40
sbs(I-2
I0
tp44
g0
(g9
g2
Ntp45
Rp46
(dp47
g13
I01
sg14
F0.47368105312429265
sg15
g44
sbs(I-26
I0
tp48
g0
(g9
g2
Ntp49
Rp50
(dp51
g13
I01
sg14
F-2.0922591779321476
sg15
g48
sbs(I-42
I5
tp52
g0
(g9
g2
Ntp53
Rp54
(dp55
g13
I01
sg14
F-1.1922429255261051
sg15
g52
sbs(I-38
I5
tp56
g0
(g9
g2
Ntp57
Rp58
(dp59
g13
I01
sg14
F-0.2000247224403377
sg15
g56
sbs(I-25
I5
tp60
g0
(g9
g2
Ntp61
Rp62
(dp63
g13
I01
sg14
F-0.74726687918378
sg15
g60
sbs(I-32
I5
tp64
g0
(g9
g2
Ntp65
Rp66
(dp67
g13
I01
sg14
F1.6452364174281475
sg15
g64
sbs(I5
I0
tp68
g0
(g9
g2
Ntp69
Rp70
(dp71
g13
I01
sg14
F0.3716261393303656
sg15
g68
sbs(I-39
I5
tp72
g0
(g9
g2
Ntp73
Rp74
(dp75
g13
I01
sg14
F0.4682057928243606
sg15
g72
sbs(I-10
I0
tp76
g0
(g9
g2
Ntp77
Rp78
(dp79
g13
I01
sg14
F-0.2748769729624283
sg15
g76
sbs(I-26
I5
tp80
g0
(g9
g2
Ntp81
Rp82
(dp83
g13
I01
sg14
F0.8111186132271522
sg15
g80
sbs(I-29
I5
tp84
g0
(g9
g2
Ntp85
Rp86
(dp87
g13
I01
sg14
F1.7057638534644028
sg15
g84
sbs(I-22
I5
tp88
g0
(g9
g2
Ntp89
Rp90
(dp91
g13
I01
sg14
F-1.4134712684418602
sg15
g88
sbs(I-20
I0
tp92
g0
(g9
g2
Ntp93
Rp94
(dp95
g13
I01
sg14
F1.689530493265243
sg15
g92
sbs(I-8
I5
tp96
g0
(g9
g2
Ntp97
Rp98
(dp99
g13
I01
sg14
F-0.036362077598904044
sg15
g96
sbs(I-27
I5
tp100
g0
(g9
g2
Ntp101
Rp102
(dp103
g13
I01
sg14
F0.3184052824174485
sg15
g100
sbs(I-19
I5
tp104
g0
(g9
g2
Ntp105
Rp106
(dp107
g13
I01
sg14
F1.1017587209020951
sg15
g104
sbs(I-35
I0
tp108
g0
(g9
g2
Ntp109
Rp110
(dp111
g13
I01
sg14
F-1.4288193026758846
sg15
g108
sbs(I-13
I5
tp112
g0
(g9
g2
Ntp113
Rp114
(dp115
g13
I01
sg14
F-1.6546614916550082
sg15
g112
sbs(I-6
I5
tp116
g0
(g9
g2
Ntp117
Rp118
(dp119
g13
I01
sg14
F-0.9776482384467637
sg15
g116
sbs(I-4
I0
tp120
g0
(g9
g2
Ntp121
Rp122
(dp123
g13
I01
sg14
F-1.0715428854127613
sg15
g120
sbs(I-3
I5
tp124
g0
(g9
g2
Ntp125
Rp126
(dp127
g13
I01
sg14
F-0.06044803336161696
sg15
g124
sbs(I-19
I0
tp128
g0
(g9
g2
Ntp129
Rp130
(dp131
g13
I01
sg14
F-0.21989611741662565
sg15
g128
sbs(I-36
I5
tp132
g0
(g9
g2
Ntp133
Rp134
(dp135
g13
I01
sg14
F-0.6403495771379741
sg15
g132
sbs(I-29
I0
tp136
g0
(g9
g2
Ntp137
Rp138
(dp139
g13
I01
sg14
F0.17847641206660572
sg15
g136
sbs(I-7
I5
tp140
g0
(g9
g2
Ntp141
Rp142
(dp143
g13
I01
sg14
F0.2263697636811055
sg15
g140
sbs(I-24
I0
tp144
g0
(g9
g2
Ntp145
Rp146
(dp147
g13
I01
sg14
F0.2417821871603062
sg15
g144
sbs(I-40
I5
tp148
g0
(g9
g2
Ntp149
Rp150
(dp151
g13
I01
sg14
F0.587872128508495
sg15
g148
sbs(I-35
I5
tp152
g0
(g9
g2
Ntp153
Rp154
(dp155
g13
I01
sg14
F-0.7227443909794216
sg15
g152
sbs(I-20
I5
tp156
g0
(g9
g2
Ntp157
Rp158
(dp159
g13
I01
sg14
F-0.5990129268434962
sg15
g156
sbs(I-39
I0
tp160
g0
(g9
g2
Ntp161
Rp162
(dp163
g13
I01
sg14
F-1.5831413472473075
sg15
g160
sbs(I-18
I0
tp164
g0
(g9
g2
Ntp165
Rp166
(dp167
g13
I01
sg14
F-1.9438616863156346
sg15
g164
sbs(I-34
I5
tp168
g0
(g9
g2
Ntp169
Rp170
(dp171
g13
I01
sg14
F-1.3128550168729878
sg15
g168
sbs(I-37
I5
tp172
g0
(g9
g2
Ntp173
Rp174
(dp175
g13
I01
sg14
F-0.2778739944159147
sg15
g172
sbs(I-13
I0
tp176
g0
(g9
g2
Ntp177
Rp178
(dp179
g13
I01
sg14
F-0.8734104409202369
sg15
g176
sbs(I-8
I0
tp180
g0
(g9
g2
Ntp181
Rp182
(dp183
g13
I01
sg14
F-1.6937707394651331
sg15
g180
sbs(I-28
I0
tp184
g0
(g9
g2
Ntp185
Rp186
(dp187
g13
I01
sg14
F1.2772667339768655
sg15
g184
sbssS'nodes'
p188
(dp189
I0
g0
(cneat.genes
DefaultNodeGene
p190
g2
Ntp191
Rp192
(dp193
S'activation'
p194
S'sigmoid'
p195
sS'bias'
p196
F-1.9160347015900594
sS'response'
p197
F1.0
sg15
I0
sS'aggregation'
p198
S'sum'
p199
sbsI5
g0
(g190
g2
Ntp200
Rp201
(dp202
g194
g195
sg196
F-0.9166785453418245
sg197
F1.0
sg15
I5
sg198
g199
sbssg15
I5
sS'fitness'
p203
I-1000
sb.