ccopy_reg
_reconstructor
p0
(cneat.genome
DefaultGenome
p1
c__builtin__
object
p2
Ntp3
Rp4
(dp5
S'connections'
p6
(dp7
(I-3
I8
tp8
g0
(cneat.genes
DefaultConnectionGene
p9
g2
Ntp10
Rp11
(dp12
S'enabled'
p13
I01
sS'weight'
p14
F-0.17294236776332933
sS'key'
p15
g8
sbs(I-38
I0
tp16
g0
(g9
g2
Ntp17
Rp18
(dp19
g13
I01
sg14
F-0.04841767855959778
sg15
g16
sbs(I8
I0
tp20
g0
(g9
g2
Ntp21
Rp22
(dp23
g13
I01
sg14
F0.5661048005723956
sg15
g20
sbs(I-11
I8
tp24
g0
(g9
g2
Ntp25
Rp26
(dp27
g13
I01
sg14
F0.9047670711603695
sg15
g24
sbs(I-12
I0
tp28
g0
(g9
g2
Ntp29
Rp30
(dp31
g13
I01
sg14
F-0.6363463979469074
sg15
g28
sbs(I-7
I0
tp32
g0
(g9
g2
Ntp33
Rp34
(dp35
g13
I01
sg14
F0.9461940666797076
sg15
g32
sbs(I-27
I0
tp36
g0
(g9
g2
Ntp37
Rp38
(dp39
g13
I01
sg14
F1.9459591061802868
sg15
g36
sbs(I24
I0
tp40
g0
(g9
g2
Ntp41
Rp42
(dp43
g13
I01
sg14
F-0.5445263128942044
sg15
g40
sbs(I-42
I0
tp44
g0
(g9
g2
Ntp45
Rp46
(dp47
g13
I01
sg14
F3.0430647875843717
sg15
g44
sbs(I-37
I0
tp48
g0
(g9
g2
Ntp49
Rp50
(dp51
g13
I01
sg14
F0.5131439751189163
sg15
g48
sbs(I-6
I0
tp52
g0
(g9
g2
Ntp53
Rp54
(dp55
g13
I01
sg14
F4.392295529092667
sg15
g52
sbs(I-26
I0
tp56
g0
(g9
g2
Ntp57
Rp58
(dp59
g13
I01
sg14
F-0.7141135452081205
sg15
g56
sbs(I-21
I0
tp60
g0
(g9
g2
Ntp61
Rp62
(dp63
g13
I01
sg14
F0.29954838129873457
sg15
g60
sbs(I-41
I0
tp64
g0
(g9
g2
Ntp65
Rp66
(dp67
g13
I01
sg14
F-1.1752911943337752
sg15
g64
sbs(I-42
I8
tp68
g0
(g9
g2
Ntp69
Rp70
(dp71
g13
I01
sg14
F0.08398566732909907
sg15
g68
sbs(I-36
I0
tp72
g0
(g9
g2
Ntp73
Rp74
(dp75
g13
I01
sg14
F-1.1618349508357957
sg15
g72
sbs(I-32
I8
tp76
g0
(g9
g2
Ntp77
Rp78
(dp79
g13
I01
sg14
F-1.40334449141762
sg15
g76
sbs(I-9
I24
tp80
g0
(g9
g2
Ntp81
Rp82
(dp83
g13
I01
sg14
F1.1496303004070538
sg15
g80
sbs(I-25
I0
tp84
g0
(g9
g2
Ntp85
Rp86
(dp87
g13
I01
sg14
F-2.075289789385539
sg15
g84
sbs(I-26
I8
tp88
g0
(g9
g2
Ntp89
Rp90
(dp91
g13
I01
sg14
F-0.14340552712679722
sg15
g88
sbs(I-21
I8
tp92
g0
(g9
g2
Ntp93
Rp94
(dp95
g13
I01
sg14
F1.7829596066656008
sg15
g92
sbs(I-15
I0
tp96
g0
(g9
g2
Ntp97
Rp98
(dp99
g13
I01
sg14
F1.0718937962076664
sg15
g96
sbs(I-16
I8
tp100
g0
(g9
g2
Ntp101
Rp102
(dp103
g13
I01
sg14
F0.39236399655888854
sg15
g100
sbs(I-29
I8
tp104
g0
(g9
g2
Ntp105
Rp106
(dp107
g13
I01
sg14
F-0.1989777707492177
sg15
g104
sbs(I-24
I8
tp108
g0
(g9
g2
Ntp109
Rp110
(dp111
g13
I01
sg14
F-0.3112020099565057
sg15
g108
sbs(I-9
I0
tp112
g0
(g9
g2
Ntp113
Rp114
(dp115
g13
I00
sg14
F0.8069547410061882
sg15
g112
sbs(I-5
I8
tp116
g0
(g9
g2
Ntp117
Rp118
(dp119
g13
I01
sg14
F2.9171863136309972
sg15
g116
sbs(I-20
I24
tp120
g0
(g9
g2
Ntp121
Rp122
(dp123
g13
I01
sg14
F2.4559420316181426
sg15
g120
sbs(I-25
I8
tp124
g0
(g9
g2
Ntp125
Rp126
(dp127
g13
I01
sg14
F2.918074012346324
sg15
g124
sbs(I-18
I8
tp128
g0
(g9
g2
Ntp129
Rp130
(dp131
g13
I01
sg14
F-2.229294315351954
sg15
g128
sbs(I-20
I8
tp132
g0
(g9
g2
Ntp133
Rp134
(dp135
g13
I01
sg14
F-1.2867896820533438
sg15
g132
sbs(I-13
I8
tp136
g0
(g9
g2
Ntp137
Rp138
(dp139
g13
I01
sg14
F-2.209848777073183
sg15
g136
sbs(I-15
I8
tp140
g0
(g9
g2
Ntp141
Rp142
(dp143
g13
I01
sg14
F0.582504436092538
sg15
g140
sbs(I-33
I8
tp144
g0
(g9
g2
Ntp145
Rp146
(dp147
g13
I01
sg14
F0.4417707419995551
sg15
g144
sbs(I-34
I0
tp148
g0
(g9
g2
Ntp149
Rp150
(dp151
g13
I01
sg14
F-0.520357213619039
sg15
g148
sbs(I-28
I8
tp152
g0
(g9
g2
Ntp153
Rp154
(dp155
g13
I01
sg14
F-0.45966321437608226
sg15
g152
sbs(I-30
I8
tp156
g0
(g9
g2
Ntp157
Rp158
(dp159
g13
I01
sg14
F-2.5139390825408006
sg15
g156
sbs(I-23
I8
tp160
g0
(g9
g2
Ntp161
Rp162
(dp163
g13
I01
sg14
F0.03528074344548085
sg15
g160
sbs(I-24
I0
tp164
g0
(g9
g2
Ntp165
Rp166
(dp167
g13
I01
sg14
F-1.8849010265862087
sg15
g164
sbs(I-9
I8
tp168
g0
(g9
g2
Ntp169
Rp170
(dp171
g13
I01
sg14
F1.6340450404905853
sg15
g168
sbs(I-43
I8
tp172
g0
(g9
g2
Ntp173
Rp174
(dp175
g13
I01
sg14
F0.13824101542761266
sg15
g172
sbs(I-4
I8
tp176
g0
(g9
g2
Ntp177
Rp178
(dp179
g13
I01
sg14
F2.206032237702629
sg15
g176
sbs(I-39
I0
tp180
g0
(g9
g2
Ntp181
Rp182
(dp183
g13
I01
sg14
F0.952967573310797
sg15
g180
sbs(I-12
I8
tp184
g0
(g9
g2
Ntp185
Rp186
(dp187
g13
I01
sg14
F-0.7844445868250568
sg15
g184
sbs(I-13
I0
tp188
g0
(g9
g2
Ntp189
Rp190
(dp191
g13
I01
sg14
F-0.1345611512687124
sg15
g188
sbs(I-7
I8
tp192
g0
(g9
g2
Ntp193
Rp194
(dp195
g13
I01
sg14
F-0.07963240127574911
sg15
g192
sbs(I-8
I0
tp196
g0
(g9
g2
Ntp197
Rp198
(dp199
g13
I01
sg14
F1.0864386041482694
sg15
g196
sbs(I-27
I8
tp200
g0
(g9
g2
Ntp201
Rp202
(dp203
g13
I01
sg14
F-1.4971269069190267
sg15
g200
sbssS'nodes'
p204
(dp205
I0
g0
(cneat.genes
DefaultNodeGene
p206
g2
Ntp207
Rp208
(dp209
S'activation'
p210
S'sigmoid'
p211
sS'bias'
p212
F-0.011772727826732318
sS'response'
p213
F1.0
sg15
I0
sS'aggregation'
p214
S'sum'
p215
sbsI8
g0
(g206
g2
Ntp216
Rp217
(dp218
g210
g211
sg212
F0.8333317455561231
sg213
F1.0
sg15
I8
sg214
g215
sbsI24
g0
(g206
g2
Ntp219
Rp220
(dp221
g210
g211
sg212
F0.5385372054186867
sg213
F1.0
sg15
I24
sg214
g215
sbssg15
I96
sS'fitness'
p222
F-97.1
sb.