ccopy_reg
_reconstructor
p0
(cneat.genome
DefaultGenome
p1
c__builtin__
object
p2
Ntp3
Rp4
(dp5
S'connections'
p6
(dp7
(I-2
I0
tp8
g0
(cneat.genes
DefaultConnectionGene
p9
g2
Ntp10
Rp11
(dp12
S'enabled'
p13
I01
sS'weight'
p14
F1.0995400192519516
sS'key'
p15
g8
sbs(I-24
I1
tp16
g0
(g9
g2
Ntp17
Rp18
(dp19
g13
I01
sg14
F1.0750785313786206
sg15
g16
sbs(I-38
I0
tp20
g0
(g9
g2
Ntp21
Rp22
(dp23
g13
I01
sg14
F-0.28696205683004733
sg15
g20
sbs(I-40
I1
tp24
g0
(g9
g2
Ntp25
Rp26
(dp27
g13
I01
sg14
F-0.07212345129580355
sg15
g24
sbs(I-12
I0
tp28
g0
(g9
g2
Ntp29
Rp30
(dp31
g13
I01
sg14
F-1.5447201379844142
sg15
g28
sbs(I-7
I0
tp32
g0
(g9
g2
Ntp33
Rp34
(dp35
g13
I01
sg14
F-1.1771848842658879
sg15
g32
sbs(I-21
I1
tp36
g0
(g9
g2
Ntp37
Rp38
(dp39
g13
I01
sg14
F0.32177029872285723
sg15
g36
sbs(I-27
I0
tp40
g0
(g9
g2
Ntp41
Rp42
(dp43
g13
I01
sg14
F1.4034807981230402
sg15
g40
sbs(I-8
I1
tp44
g0
(g9
g2
Ntp45
Rp46
(dp47
g13
I01
sg14
F-0.13500951474703504
sg15
g44
sbs(I-31
I1
tp48
g0
(g9
g2
Ntp49
Rp50
(dp51
g13
I01
sg14
F0.08933328872401561
sg15
g48
sbs(I-1
I0
tp52
g0
(g9
g2
Ntp53
Rp54
(dp55
g13
I01
sg14
F-0.6807996492996187
sg15
g52
sbs(I-1
I1
tp56
g0
(g9
g2
Ntp57
Rp58
(dp59
g13
I01
sg14
F-1.0184904061712814
sg15
g56
sbs(I-32
I0
tp60
g0
(g9
g2
Ntp61
Rp62
(dp63
g13
I01
sg14
F1.1152589879764427
sg15
g60
sbs(I-25
I1
tp64
g0
(g9
g2
Ntp65
Rp66
(dp67
g13
I01
sg14
F0.322704124325303
sg15
g64
sbs(I-12
I1
tp68
g0
(g9
g2
Ntp69
Rp70
(dp71
g13
I01
sg14
F3.1033136408399957
sg15
g68
sbs(I-15
I1
tp72
g0
(g9
g2
Ntp73
Rp74
(dp75
g13
I01
sg14
F0.9236164307878824
sg15
g72
sbs(I-42
I0
tp76
g0
(g9
g2
Ntp77
Rp78
(dp79
g13
I01
sg14
F-0.08042006848699287
sg15
g76
sbs(I-21
I0
tp80
g0
(g9
g2
Ntp81
Rp82
(dp83
g13
I01
sg14
F0.9274230917977309
sg15
g80
sbs(I-35
I1
tp84
g0
(g9
g2
Ntp85
Rp86
(dp87
g13
I01
sg14
F0.9153039206685292
sg15
g84
sbs(I-9
I1
tp88
g0
(g9
g2
Ntp89
Rp90
(dp91
g13
I01
sg14
F-0.1520534859733701
sg15
g88
sbs(I-31
I0
tp92
g0
(g9
g2
Ntp93
Rp94
(dp95
g13
I01
sg14
F0.06959822668250792
sg15
g92
sbs(I-10
I0
tp96
g0
(g9
g2
Ntp97
Rp98
(dp99
g13
I01
sg14
F-0.9891811826038558
sg15
g96
sbs(I-19
I1
tp100
g0
(g9
g2
Ntp101
Rp102
(dp103
g13
I01
sg14
F-0.23992367110433327
sg15
g100
sbs(I-29
I1
tp104
g0
(g9
g2
Ntp105
Rp106
(dp107
g13
I01
sg14
F-0.5253263662301043
sg15
g104
sbs(I-25
I0
tp108
g0
(g9
g2
Ntp109
Rp110
(dp111
g13
I01
sg14
F1.1331954508456676
sg15
g108
sbs(I-36
I0
tp112
g0
(g9
g2
Ntp113
Rp114
(dp115
g13
I01
sg14
F-0.8901569580145837
sg15
g112
sbs(I-2
I1
tp116
g0
(g9
g2
Ntp117
Rp118
(dp119
g13
I01
sg14
F2.007721566040484
sg15
g116
sbs(I-16
I1
tp120
g0
(g9
g2
Ntp121
Rp122
(dp123
g13
I01
sg14
F-0.8282926332784556
sg15
g120
sbs(I-30
I0
tp124
g0
(g9
g2
Ntp125
Rp126
(dp127
g13
I01
sg14
F0.017348517929265353
sg15
g124
sbs(I-36
I1
tp128
g0
(g9
g2
Ntp129
Rp130
(dp131
g13
I01
sg14
F-0.16835723989012893
sg15
g128
sbs(I-4
I0
tp132
g0
(g9
g2
Ntp133
Rp134
(dp135
g13
I01
sg14
F-1.180040871623034
sg15
g132
sbs(I1
I0
tp136
g0
(g9
g2
Ntp137
Rp138
(dp139
g13
I01
sg14
F-1.2073185152353578
sg15
g136
sbs(I-13
I1
tp140
g0
(g9
g2
Ntp141
Rp142
(dp143
g13
I01
sg14
F0.282424473351953
sg15
g140
sbs(I-19
I0
tp144
g0
(g9
g2
Ntp145
Rp146
(dp147
g13
I01
sg14
F0.024146179025340817
sg15
g144
sbs(I-33
I1
tp148
g0
(g9
g2
Ntp149
Rp150
(dp151
g13
I01
sg14
F0.8955364037755591
sg15
g148
sbs(I-14
I0
tp152
g0
(g9
g2
Ntp153
Rp154
(dp155
g13
I01
sg14
F0.4884505995365143
sg15
g152
sbs(I-29
I0
tp156
g0
(g9
g2
Ntp157
Rp158
(dp159
g13
I01
sg14
F-1.4940904881840857
sg15
g156
sbs(I-24
I0
tp160
g0
(g9
g2
Ntp161
Rp162
(dp163
g13
I01
sg14
F1.966879099965378
sg15
g160
sbs(I-18
I1
tp164
g0
(g9
g2
Ntp165
Rp166
(dp167
g13
I01
sg14
F-2.269423349685796
sg15
g164
sbs(I-30
I1
tp168
g0
(g9
g2
Ntp169
Rp170
(dp171
g13
I01
sg14
F2.046443431927199
sg15
g168
sbs(I-18
I0
tp172
g0
(g9
g2
Ntp173
Rp174
(dp175
g13
I01
sg14
F-0.7386153214429867
sg15
g172
sbs(I-13
I0
tp176
g0
(g9
g2
Ntp177
Rp178
(dp179
g13
I01
sg14
F-0.17001474828433338
sg15
g176
sbs(I-9
I0
tp180
g0
(g9
g2
Ntp181
Rp182
(dp183
g13
I01
sg14
F-0.1532766349949176
sg15
g180
sbs(I-8
I0
tp184
g0
(g9
g2
Ntp185
Rp186
(dp187
g13
I01
sg14
F1.5887321750130878
sg15
g184
sbssS'nodes'
p188
(dp189
I0
g0
(cneat.genes
DefaultNodeGene
p190
g2
Ntp191
Rp192
(dp193
S'activation'
p194
S'sigmoid'
p195
sS'bias'
p196
F-0.21284903308749306
sS'response'
p197
F1.0
sg15
I0
sS'aggregation'
p198
S'sum'
p199
sbsI1
g0
(g190
g2
Ntp200
Rp201
(dp202
g194
g195
sg196
F-0.08590308956524122
sg197
F1.0
sg15
I1
sg198
g199
sbssg15
I1
sS'fitness'
p203
I-1000
sb.