ccopy_reg
_reconstructor
p0
(cneat.genome
DefaultGenome
p1
c__builtin__
object
p2
Ntp3
Rp4
(dp5
S'connections'
p6
(dp7
(I-37
I0
tp8
g0
(cneat.genes
DefaultConnectionGene
p9
g2
Ntp10
Rp11
(dp12
S'enabled'
p13
I01
sS'weight'
p14
F-1.1341424799555686
sS'key'
p15
g8
sbs(I-5
I0
tp16
g0
(g9
g2
Ntp17
Rp18
(dp19
g13
I01
sg14
F1.6929549823975973
sg15
g16
sbs(I-24
I0
tp20
g0
(g9
g2
Ntp21
Rp22
(dp23
g13
I01
sg14
F-0.993680402201258
sg15
g20
sbs(I-25
I0
tp24
g0
(g9
g2
Ntp25
Rp26
(dp27
g13
I01
sg14
F-1.8345849770765787
sg15
g24
sbs(I-34
I0
tp28
g0
(g9
g2
Ntp29
Rp30
(dp31
g13
I01
sg14
F0.15223644775470394
sg15
g28
sbs(I-38
I0
tp32
g0
(g9
g2
Ntp33
Rp34
(dp35
g13
I01
sg14
F-0.20733938997716017
sg15
g32
sbs(I-15
I0
tp36
g0
(g9
g2
Ntp37
Rp38
(dp39
g13
I01
sg14
F0.5859044126521429
sg15
g36
sbs(I-36
I0
tp40
g0
(g9
g2
Ntp41
Rp42
(dp43
g13
I01
sg14
F-0.9947193706633984
sg15
g40
sbs(I-26
I0
tp44
g0
(g9
g2
Ntp45
Rp46
(dp47
g13
I01
sg14
F-1.173619305189516
sg15
g44
sbs(I-12
I0
tp48
g0
(g9
g2
Ntp49
Rp50
(dp51
g13
I01
sg14
F-0.01182374486448351
sg15
g48
sbs(I-21
I0
tp52
g0
(g9
g2
Ntp53
Rp54
(dp55
g13
I01
sg14
F0.32865377915101524
sg15
g52
sbs(I-7
I0
tp56
g0
(g9
g2
Ntp57
Rp58
(dp59
g13
I01
sg14
F0.16469255917424547
sg15
g56
sbs(I-41
I0
tp60
g0
(g9
g2
Ntp61
Rp62
(dp63
g13
I01
sg14
F-0.7468378402259606
sg15
g60
sbs(I-39
I0
tp64
g0
(g9
g2
Ntp65
Rp66
(dp67
g13
I01
sg14
F-0.015369687379785169
sg15
g64
sbs(I-27
I0
tp68
g0
(g9
g2
Ntp69
Rp70
(dp71
g13
I01
sg14
F1.155846751402398
sg15
g68
sbs(I-6
I0
tp72
g0
(g9
g2
Ntp73
Rp74
(dp75
g13
I00
sg14
F1.8335547692760437
sg15
g72
sbs(I-13
I0
tp76
g0
(g9
g2
Ntp77
Rp78
(dp79
g13
I01
sg14
F-0.7808221732075962
sg15
g76
sbs(I-9
I0
tp80
g0
(g9
g2
Ntp81
Rp82
(dp83
g13
I01
sg14
F-1.8078531555856392
sg15
g80
sbs(I-8
I0
tp84
g0
(g9
g2
Ntp85
Rp86
(dp87
g13
I01
sg14
F0.030754679387013963
sg15
g84
sbs(I-42
I0
tp88
g0
(g9
g2
Ntp89
Rp90
(dp91
g13
I01
sg14
F1.9316446613907465
sg15
g88
sbssS'nodes'
p92
(dp93
I0
g0
(cneat.genes
DefaultNodeGene
p94
g2
Ntp95
Rp96
(dp97
S'activation'
p98
S'sigmoid'
p99
sS'bias'
p100
F-0.11473438007876258
sS'response'
p101
F1.0
sg15
I0
sS'aggregation'
p102
S'sum'
p103
sbssg15
I50
sS'fitness'
p104
I-1000
sb.