ccopy_reg
_reconstructor
p0
(cneat.genome
DefaultGenome
p1
c__builtin__
object
p2
Ntp3
Rp4
(dp5
S'connections'
p6
(dp7
(I-14
I23
tp8
g0
(cneat.genes
DefaultConnectionGene
p9
g2
Ntp10
Rp11
(dp12
S'enabled'
p13
I01
sS'weight'
p14
F1.8096975307160792
sS'key'
p15
g8
sbs(I-23
I0
tp16
g0
(g9
g2
Ntp17
Rp18
(dp19
g13
I01
sg14
F-1.688360018793743
sg15
g16
sbs(I-1
I0
tp20
g0
(g9
g2
Ntp21
Rp22
(dp23
g13
I01
sg14
F-1.1363636119486211
sg15
g20
sbs(I-38
I0
tp24
g0
(g9
g2
Ntp25
Rp26
(dp27
g13
I01
sg14
F-1.0549963828006517
sg15
g24
sbs(I-17
I0
tp28
g0
(g9
g2
Ntp29
Rp30
(dp31
g13
I01
sg14
F-0.08220403429647172
sg15
g28
sbs(I-12
I0
tp32
g0
(g9
g2
Ntp33
Rp34
(dp35
g13
I01
sg14
F1.9795896189797082
sg15
g32
sbs(I-7
I0
tp36
g0
(g9
g2
Ntp37
Rp38
(dp39
g13
I01
sg14
F-0.6643332085105615
sg15
g36
sbs(I-27
I0
tp40
g0
(g9
g2
Ntp41
Rp42
(dp43
g13
I01
sg14
F0.7253874382030656
sg15
g40
sbs(I-37
I0
tp44
g0
(g9
g2
Ntp45
Rp46
(dp47
g13
I01
sg14
F-2.3772862489257234
sg15
g44
sbs(I-11
I0
tp48
g0
(g9
g2
Ntp49
Rp50
(dp51
g13
I01
sg14
F-1.7135226282083131
sg15
g48
sbs(I-39
I0
tp52
g0
(g9
g2
Ntp53
Rp54
(dp55
g13
I01
sg14
F1.6057104402597548
sg15
g52
sbs(I-21
I0
tp56
g0
(g9
g2
Ntp57
Rp58
(dp59
g13
I01
sg14
F2.394241604458152
sg15
g56
sbs(I-41
I0
tp60
g0
(g9
g2
Ntp61
Rp62
(dp63
g13
I00
sg14
F-0.9139490131915167
sg15
g60
sbs(I-36
I0
tp64
g0
(g9
g2
Ntp65
Rp66
(dp67
g13
I01
sg14
F0.7207007677802407
sg15
g64
sbs(I-14
I21
tp68
g0
(g9
g2
Ntp69
Rp70
(dp71
g13
I00
sg14
F2.222536705552141
sg15
g68
sbs(I31
I0
tp72
g0
(g9
g2
Ntp73
Rp74
(dp75
g13
I01
sg14
F-1.089480413912322
sg15
g72
sbs(I-20
I0
tp76
g0
(g9
g2
Ntp77
Rp78
(dp79
g13
I00
sg14
F-1.5487895194848171
sg15
g76
sbs(I-4
I0
tp80
g0
(g9
g2
Ntp81
Rp82
(dp83
g13
I01
sg14
F0.20818047923281174
sg15
g80
sbs(I-40
I0
tp84
g0
(g9
g2
Ntp85
Rp86
(dp87
g13
I01
sg14
F-0.5107147090311976
sg15
g84
sbs(I-31
I0
tp88
g0
(g9
g2
Ntp89
Rp90
(dp91
g13
I01
sg14
F-1.8443801916384563
sg15
g88
sbs(I-19
I0
tp92
g0
(g9
g2
Ntp93
Rp94
(dp95
g13
I01
sg14
F0.7596513869373729
sg15
g92
sbs(I-34
I0
tp96
g0
(g9
g2
Ntp97
Rp98
(dp99
g13
I01
sg14
F-0.21094108332148265
sg15
g96
sbs(I-29
I0
tp100
g0
(g9
g2
Ntp101
Rp102
(dp103
g13
I01
sg14
F0.3230003734789069
sg15
g100
sbs(I-24
I0
tp104
g0
(g9
g2
Ntp105
Rp106
(dp107
g13
I01
sg14
F-1.73084246951389
sg15
g104
sbs(I-3
I0
tp108
g0
(g9
g2
Ntp109
Rp110
(dp111
g13
I01
sg14
F-0.423012621324369
sg15
g108
sbs(I-20
I31
tp112
g0
(g9
g2
Ntp113
Rp114
(dp115
g13
I01
sg14
F1.5025818000670423
sg15
g112
sbssS'nodes'
p116
(dp117
I0
g0
(cneat.genes
DefaultNodeGene
p118
g2
Ntp119
Rp120
(dp121
S'activation'
p122
S'sigmoid'
p123
sS'bias'
p124
F-0.3286891839338004
sS'response'
p125
F1.0
sg15
I0
sS'aggregation'
p126
S'sum'
p127
sbsI23
g0
(g118
g2
Ntp128
Rp129
(dp130
g122
g123
sg124
F0.8109360726266938
sg125
F1.0
sg15
I23
sg126
g127
sbsI21
g0
(g118
g2
Ntp131
Rp132
(dp133
g122
g123
sg124
F0.2817404898026472
sg125
F1.0
sg15
I21
sg126
g127
sbsI31
g0
(g118
g2
Ntp134
Rp135
(dp136
g122
g123
sg124
F-0.8258240273396448
sg125
F1.0
sg15
I31
sg126
g127
sbssg15
I98
sS'fitness'
p137
F17.2
sb.