ccopy_reg
_reconstructor
p0
(cneat.genome
DefaultGenome
p1
c__builtin__
object
p2
Ntp3
Rp4
(dp5
S'connections'
p6
(dp7
(I-2
I0
tp8
g0
(cneat.genes
DefaultConnectionGene
p9
g2
Ntp10
Rp11
(dp12
S'enabled'
p13
I01
sS'weight'
p14
F-1.5755931983374205
sS'key'
p15
g8
sbs(I-43
I0
tp16
g0
(g9
g2
Ntp17
Rp18
(dp19
g13
I01
sg14
F-1.6211382244445807
sg15
g16
sbs(I-38
I0
tp20
g0
(g9
g2
Ntp21
Rp22
(dp23
g13
I01
sg14
F-0.00562171839136184
sg15
g20
sbs(I-9
I2
tp24
g0
(g9
g2
Ntp25
Rp26
(dp27
g13
I01
sg14
F0.9222200392325453
sg15
g24
sbs(I-12
I0
tp28
g0
(g9
g2
Ntp29
Rp30
(dp31
g13
I01
sg14
F-0.7205395681991281
sg15
g28
sbs(I-15
I2
tp32
g0
(g9
g2
Ntp33
Rp34
(dp35
g13
I01
sg14
F-0.8571815778799743
sg15
g32
sbs(I-4
I2
tp36
g0
(g9
g2
Ntp37
Rp38
(dp39
g13
I01
sg14
F-1.8044985184087505
sg15
g36
sbs(I-7
I0
tp40
g0
(g9
g2
Ntp41
Rp42
(dp43
g13
I01
sg14
F0.49696034421469837
sg15
g40
sbs(I-35
I2
tp44
g0
(g9
g2
Ntp45
Rp46
(dp47
g13
I01
sg14
F-0.4495055691738136
sg15
g44
sbs(I-27
I0
tp48
g0
(g9
g2
Ntp49
Rp50
(dp51
g13
I01
sg14
F-0.20380661543598788
sg15
g48
sbs(I-30
I2
tp52
g0
(g9
g2
Ntp53
Rp54
(dp55
g13
I01
sg14
F-1.0657598022364314
sg15
g52
sbs(I-22
I0
tp56
g0
(g9
g2
Ntp57
Rp58
(dp59
g13
I01
sg14
F0.9439066749648464
sg15
g56
sbs(I-37
I0
tp60
g0
(g9
g2
Ntp61
Rp62
(dp63
g13
I01
sg14
F0.006183356778815539
sg15
g60
sbs(I-29
I2
tp64
g0
(g9
g2
Ntp65
Rp66
(dp67
g13
I01
sg14
F0.3771581543425437
sg15
g64
sbs(I-34
I2
tp68
g0
(g9
g2
Ntp69
Rp70
(dp71
g13
I01
sg14
F1.8599758501070367
sg15
g68
sbs(I-26
I0
tp72
g0
(g9
g2
Ntp73
Rp74
(dp75
g13
I01
sg14
F-0.01928659191632317
sg15
g72
sbs(I-21
I0
tp76
g0
(g9
g2
Ntp77
Rp78
(dp79
g13
I01
sg14
F-0.7592743251088689
sg15
g76
sbs(I-13
I2
tp80
g0
(g9
g2
Ntp81
Rp82
(dp83
g13
I01
sg14
F-1.015470913703755
sg15
g80
sbs(I-16
I0
tp84
g0
(g9
g2
Ntp85
Rp86
(dp87
g13
I01
sg14
F1.366358614348159
sg15
g84
sbs(I-41
I0
tp88
g0
(g9
g2
Ntp89
Rp90
(dp91
g13
I01
sg14
F0.3811991438735914
sg15
g88
sbs(I-33
I2
tp92
g0
(g9
g2
Ntp93
Rp94
(dp95
g13
I01
sg14
F1.3271652262774403
sg15
g92
sbs(I-18
I2
tp96
g0
(g9
g2
Ntp97
Rp98
(dp99
g13
I01
sg14
F0.650297861005817
sg15
g96
sbs(I-10
I0
tp100
g0
(g9
g2
Ntp101
Rp102
(dp103
g13
I01
sg14
F-0.3329384152487713
sg15
g100
sbs(I-1
I2
tp104
g0
(g9
g2
Ntp105
Rp106
(dp107
g13
I01
sg14
F1.5096156331057486
sg15
g104
sbs(I-23
I2
tp108
g0
(g9
g2
Ntp109
Rp110
(dp111
g13
I01
sg14
F0.6676055824005807
sg15
g108
sbs(I-12
I2
tp112
g0
(g9
g2
Ntp113
Rp114
(dp115
g13
I01
sg14
F0.3091079331485019
sg15
g112
sbs(I-15
I0
tp116
g0
(g9
g2
Ntp117
Rp118
(dp119
g13
I01
sg14
F0.3809001410839314
sg15
g116
sbs(I-2
I2
tp120
g0
(g9
g2
Ntp121
Rp122
(dp123
g13
I01
sg14
F0.69928953415575
sg15
g120
sbs(I-35
I0
tp124
g0
(g9
g2
Ntp125
Rp126
(dp127
g13
I01
sg14
F-0.6736866127087767
sg15
g124
sbs(I-30
I0
tp128
g0
(g9
g2
Ntp129
Rp130
(dp131
g13
I01
sg14
F1.0706297143425865
sg15
g128
sbs(I-7
I2
tp132
g0
(g9
g2
Ntp133
Rp134
(dp135
g13
I01
sg14
F-1.1314642388720553
sg15
g132
sbs(I-37
I2
tp136
g0
(g9
g2
Ntp137
Rp138
(dp139
g13
I01
sg14
F0.45786977161086306
sg15
g136
sbs(I-40
I0
tp140
g0
(g9
g2
Ntp141
Rp142
(dp143
g13
I01
sg14
F0.451602038694728
sg15
g140
sbs(I-27
I2
tp144
g0
(g9
g2
Ntp145
Rp146
(dp147
g13
I01
sg14
F1.4547494299959773
sg15
g144
sbs(I-32
I2
tp148
g0
(g9
g2
Ntp149
Rp150
(dp151
g13
I01
sg14
F0.8883501210275937
sg15
g148
sbs(I-29
I0
tp152
g0
(g9
g2
Ntp153
Rp154
(dp155
g13
I01
sg14
F-0.6818100756835428
sg15
g152
sbs(I-21
I2
tp156
g0
(g9
g2
Ntp157
Rp158
(dp159
g13
I01
sg14
F-1.1468376690887085
sg15
g156
sbs(I-11
I2
tp160
g0
(g9
g2
Ntp161
Rp162
(dp163
g13
I01
sg14
F-0.6088889133750277
sg15
g160
sbs(I-16
I2
tp164
g0
(g9
g2
Ntp165
Rp166
(dp167
g13
I01
sg14
F-1.3401841603306097
sg15
g164
sbs(I2
I0
tp168
g0
(g9
g2
Ntp169
Rp170
(dp171
g13
I01
sg14
F-1.010717087537323
sg15
g168
sbs(I-26
I2
tp172
g0
(g9
g2
Ntp173
Rp174
(dp175
g13
I01
sg14
F1.8169226351416745
sg15
g172
sbs(I-5
I2
tp176
g0
(g9
g2
Ntp177
Rp178
(dp179
g13
I01
sg14
F0.9316701488079044
sg15
g176
sbs(I-8
I0
tp180
g0
(g9
g2
Ntp181
Rp182
(dp183
g13
I01
sg14
F-0.4191611147804608
sg15
g180
sbs(I-33
I0
tp184
g0
(g9
g2
Ntp185
Rp186
(dp187
g13
I01
sg14
F-0.7651175955153602
sg15
g184
sbssS'nodes'
p188
(dp189
I0
g0
(cneat.genes
DefaultNodeGene
p190
g2
Ntp191
Rp192
(dp193
S'activation'
p194
S'sigmoid'
p195
sS'bias'
p196
F0.28658671596438223
sS'response'
p197
F1.0
sg15
I0
sS'aggregation'
p198
S'sum'
p199
sbsI2
g0
(g190
g2
Ntp200
Rp201
(dp202
g194
g195
sg196
F0.6964270030617136
sg197
F1.0
sg15
I2
sg198
g199
sbssg15
I2
sS'fitness'
p203
I-1000
sb.