ccopy_reg
_reconstructor
p0
(cneat.genome
DefaultGenome
p1
c__builtin__
object
p2
Ntp3
Rp4
(dp5
S'connections'
p6
(dp7
(I-2
I0
tp8
g0
(cneat.genes
DefaultConnectionGene
p9
g2
Ntp10
Rp11
(dp12
S'enabled'
p13
I01
sS'weight'
p14
F-1.0380447551735483
sS'key'
p15
g8
sbs(I-43
I0
tp16
g0
(g9
g2
Ntp17
Rp18
(dp19
g13
I01
sg14
F0.27139597833423923
sg15
g16
sbs(I-40
I6
tp20
g0
(g9
g2
Ntp21
Rp22
(dp23
g13
I01
sg14
F-0.5526998642478692
sg15
g20
sbs(I-25
I6
tp24
g0
(g9
g2
Ntp25
Rp26
(dp27
g13
I01
sg14
F0.8240964673428565
sg15
g24
sbs(I-17
I0
tp28
g0
(g9
g2
Ntp29
Rp30
(dp31
g13
I01
sg14
F-0.9143065262714923
sg15
g28
sbs(I-20
I6
tp32
g0
(g9
g2
Ntp33
Rp34
(dp35
g13
I01
sg14
F-0.917955629705525
sg15
g32
sbs(I-27
I0
tp36
g0
(g9
g2
Ntp37
Rp38
(dp39
g13
I01
sg14
F0.68166346448247
sg15
g36
sbs(I-22
I0
tp40
g0
(g9
g2
Ntp41
Rp42
(dp43
g13
I01
sg14
F0.9963948604868171
sg15
g40
sbs(I-24
I6
tp44
g0
(g9
g2
Ntp45
Rp46
(dp47
g13
I01
sg14
F0.4364865127941306
sg15
g44
sbs(I-9
I6
tp48
g0
(g9
g2
Ntp49
Rp50
(dp51
g13
I01
sg14
F1.6565999263818083
sg15
g48
sbs(I-4
I6
tp52
g0
(g9
g2
Ntp53
Rp54
(dp55
g13
I01
sg14
F1.6507934679415657
sg15
g52
sbs(I-1
I0
tp56
g0
(g9
g2
Ntp57
Rp58
(dp59
g13
I01
sg14
F-1.437454024165314
sg15
g56
sbs(I-32
I0
tp60
g0
(g9
g2
Ntp61
Rp62
(dp63
g13
I01
sg14
F2.087856409820018
sg15
g60
sbs(I-6
I0
tp64
g0
(g9
g2
Ntp65
Rp66
(dp67
g13
I01
sg14
F0.2530589621651756
sg15
g64
sbs(I-18
I6
tp68
g0
(g9
g2
Ntp69
Rp70
(dp71
g13
I01
sg14
F1.6791599835149984
sg15
g68
sbs(I-19
I6
tp72
g0
(g9
g2
Ntp73
Rp74
(dp75
g13
I01
sg14
F-0.506388010308203
sg15
g72
sbs(I-14
I6
tp76
g0
(g9
g2
Ntp77
Rp78
(dp79
g13
I01
sg14
F0.04134677203387541
sg15
g76
sbs(I-21
I6
tp80
g0
(g9
g2
Ntp81
Rp82
(dp83
g13
I01
sg14
F0.9248247497453986
sg15
g80
sbs(I-38
I0
tp84
g0
(g9
g2
Ntp85
Rp86
(dp87
g13
I01
sg14
F-0.27229538716751694
sg15
g84
sbs(I-31
I0
tp88
g0
(g9
g2
Ntp89
Rp90
(dp91
g13
I01
sg14
F1.8263246675766314
sg15
g88
sbs(I-34
I6
tp92
g0
(g9
g2
Ntp93
Rp94
(dp95
g13
I01
sg14
F-1.4218190741206806
sg15
g92
sbs(I-23
I6
tp96
g0
(g9
g2
Ntp97
Rp98
(dp99
g13
I01
sg14
F-0.8021072406164029
sg15
g96
sbs(I-10
I0
tp100
g0
(g9
g2
Ntp101
Rp102
(dp103
g13
I01
sg14
F1.1876261514657191
sg15
g100
sbs(I-1
I6
tp104
g0
(g9
g2
Ntp105
Rp106
(dp107
g13
I01
sg14
F-0.252715103726248
sg15
g104
sbs(I-3
I6
tp108
g0
(g9
g2
Ntp109
Rp110
(dp111
g13
I01
sg14
F-0.762984908723226
sg15
g108
sbs(I-33
I6
tp112
g0
(g9
g2
Ntp113
Rp114
(dp115
g13
I01
sg14
F0.9952412970671514
sg15
g112
sbs(I-28
I6
tp116
g0
(g9
g2
Ntp117
Rp118
(dp119
g13
I01
sg14
F-0.7355496371160131
sg15
g116
sbs(I-16
I6
tp120
g0
(g9
g2
Ntp121
Rp122
(dp123
g13
I01
sg14
F-0.21723143793141805
sg15
g120
sbs(I6
I0
tp124
g0
(g9
g2
Ntp125
Rp126
(dp127
g13
I01
sg14
F0.003839216565370851
sg15
g124
sbs(I-35
I0
tp128
g0
(g9
g2
Ntp129
Rp130
(dp131
g13
I01
sg14
F0.3029119815663894
sg15
g128
sbs(I-32
I6
tp132
g0
(g9
g2
Ntp133
Rp134
(dp135
g13
I01
sg14
F0.42284899956428823
sg15
g132
sbs(I-4
I0
tp136
g0
(g9
g2
Ntp137
Rp138
(dp139
g13
I01
sg14
F-0.36059366873142734
sg15
g136
sbs(I-19
I0
tp140
g0
(g9
g2
Ntp141
Rp142
(dp143
g13
I01
sg14
F0.8312583074717442
sg15
g140
sbs(I-14
I0
tp144
g0
(g9
g2
Ntp145
Rp146
(dp147
g13
I01
sg14
F0.36189291830482445
sg15
g144
sbs(I-29
I0
tp148
g0
(g9
g2
Ntp149
Rp150
(dp151
g13
I01
sg14
F0.3147988860460174
sg15
g148
sbs(I-39
I0
tp152
g0
(g9
g2
Ntp153
Rp154
(dp155
g13
I01
sg14
F-0.09496515646040506
sg15
g152
sbs(I-31
I6
tp156
g0
(g9
g2
Ntp157
Rp158
(dp159
g13
I01
sg14
F-0.9743907485298665
sg15
g156
sbs(I-18
I0
tp160
g0
(g9
g2
Ntp161
Rp162
(dp163
g13
I01
sg14
F0.2356791162394016
sg15
g160
sbs(I-10
I6
tp164
g0
(g9
g2
Ntp165
Rp166
(dp167
g13
I01
sg14
F0.24289898497871681
sg15
g164
sbs(I-13
I0
tp168
g0
(g9
g2
Ntp169
Rp170
(dp171
g13
I01
sg14
F0.6994327740670101
sg15
g168
sbs(I-41
I6
tp172
g0
(g9
g2
Ntp173
Rp174
(dp175
g13
I01
sg14
F0.7503878849624931
sg15
g172
sbs(I-33
I0
tp176
g0
(g9
g2
Ntp177
Rp178
(dp179
g13
I01
sg14
F-0.6466667108033919
sg15
g176
sbs(I-36
I6
tp180
g0
(g9
g2
Ntp181
Rp182
(dp183
g13
I01
sg14
F0.6622883849842932
sg15
g180
sbs(I-28
I0
tp184
g0
(g9
g2
Ntp185
Rp186
(dp187
g13
I01
sg14
F1.4918358373889526
sg15
g184
sbssS'nodes'
p188
(dp189
I0
g0
(cneat.genes
DefaultNodeGene
p190
g2
Ntp191
Rp192
(dp193
S'activation'
p194
S'sigmoid'
p195
sS'bias'
p196
F0.5356816223316189
sS'response'
p197
F1.0
sg15
I0
sS'aggregation'
p198
S'sum'
p199
sbsI6
g0
(g190
g2
Ntp200
Rp201
(dp202
g194
g195
sg196
F-0.3521501047831827
sg197
F1.0
sg15
I6
sg198
g199
sbssg15
I6
sS'fitness'
p203
I-1000
sb.