ccopy_reg
_reconstructor
p0
(cneat.genome
DefaultGenome
p1
c__builtin__
object
p2
Ntp3
Rp4
(dp5
S'connections'
p6
(dp7
(I-23
I0
tp8
g0
(cneat.genes
DefaultConnectionGene
p9
g2
Ntp10
Rp11
(dp12
S'enabled'
p13
I01
sS'weight'
p14
F-0.7919808837866815
sS'key'
p15
g8
sbs(I-39
I11
tp16
g0
(g9
g2
Ntp17
Rp18
(dp19
g13
I01
sg14
F-0.49709594023408477
sg15
g16
sbs(I-43
I0
tp20
g0
(g9
g2
Ntp21
Rp22
(dp23
g13
I01
sg14
F1.2371547754741976
sg15
g20
sbs(I-9
I11
tp24
g0
(g9
g2
Ntp25
Rp26
(dp27
g13
I01
sg14
F0.41686344009399506
sg15
g24
sbs(I-17
I0
tp28
g0
(g9
g2
Ntp29
Rp30
(dp31
g13
I01
sg14
F-0.4161780115429907
sg15
g28
sbs(I-35
I11
tp32
g0
(g9
g2
Ntp33
Rp34
(dp35
g13
I01
sg14
F-0.25725022806824316
sg15
g32
sbs(I-17
I11
tp36
g0
(g9
g2
Ntp37
Rp38
(dp39
g13
I01
sg14
F0.6098713368823452
sg15
g36
sbs(I-32
I11
tp40
g0
(g9
g2
Ntp41
Rp42
(dp43
g13
I01
sg14
F1.9063478942720125
sg15
g40
sbs(I-23
I11
tp44
g0
(g9
g2
Ntp45
Rp46
(dp47
g13
I01
sg14
F0.986697754199536
sg15
g44
sbs(I-43
I11
tp48
g0
(g9
g2
Ntp49
Rp50
(dp51
g13
I01
sg14
F0.3102754615289855
sg15
g48
sbs(I-42
I11
tp52
g0
(g9
g2
Ntp53
Rp54
(dp55
g13
I01
sg14
F-1.0197066359695706
sg15
g52
sbs(I-22
I0
tp56
g0
(g9
g2
Ntp57
Rp58
(dp59
g13
I01
sg14
F-0.42576903927188103
sg15
g56
sbs(I-40
I11
tp60
g0
(g9
g2
Ntp61
Rp62
(dp63
g13
I01
sg14
F0.27263095718315217
sg15
g60
sbs(I-19
I11
tp64
g0
(g9
g2
Ntp65
Rp66
(dp67
g13
I01
sg14
F1.0644357841389485
sg15
g64
sbs(I-37
I0
tp68
g0
(g9
g2
Ntp69
Rp70
(dp71
g13
I01
sg14
F-0.9051437068239326
sg15
g68
sbs(I-7
I11
tp72
g0
(g9
g2
Ntp73
Rp74
(dp75
g13
I01
sg14
F0.02524219864527213
sg15
g72
sbs(I-11
I0
tp76
g0
(g9
g2
Ntp77
Rp78
(dp79
g13
I01
sg14
F1.0842781481555726
sg15
g76
sbs(I-26
I11
tp80
g0
(g9
g2
Ntp81
Rp82
(dp83
g13
I01
sg14
F1.318960738267159
sg15
g80
sbs(I-6
I0
tp84
g0
(g9
g2
Ntp85
Rp86
(dp87
g13
I01
sg14
F-0.4409996771534886
sg15
g84
sbs(I-3
I11
tp88
g0
(g9
g2
Ntp89
Rp90
(dp91
g13
I01
sg14
F-0.5010257552601204
sg15
g88
sbs(I-36
I0
tp92
g0
(g9
g2
Ntp93
Rp94
(dp95
g13
I01
sg14
F-1.681172215140015
sg15
g92
sbs(I-10
I11
tp96
g0
(g9
g2
Ntp97
Rp98
(dp99
g13
I01
sg14
F0.025825710303288084
sg15
g96
sbs(I-31
I0
tp100
g0
(g9
g2
Ntp101
Rp102
(dp103
g13
I01
sg14
F0.18066062216963708
sg15
g100
sbs(I-10
I0
tp104
g0
(g9
g2
Ntp105
Rp106
(dp107
g13
I01
sg14
F-1.8095274713775613
sg15
g104
sbs(I-28
I11
tp108
g0
(g9
g2
Ntp109
Rp110
(dp111
g13
I01
sg14
F-0.14417199067300243
sg15
g108
sbs(I-5
I0
tp112
g0
(g9
g2
Ntp113
Rp114
(dp115
g13
I01
sg14
F-1.403059345020714
sg15
g112
sbs(I-20
I0
tp116
g0
(g9
g2
Ntp117
Rp118
(dp119
g13
I01
sg14
F-0.49008321008808503
sg15
g116
sbs(I-15
I0
tp120
g0
(g9
g2
Ntp121
Rp122
(dp123
g13
I01
sg14
F-0.07320145069289541
sg15
g120
sbs(I-2
I11
tp124
g0
(g9
g2
Ntp125
Rp126
(dp127
g13
I01
sg14
F-1.0030036821169688
sg15
g124
sbs(I-13
I0
tp128
g0
(g9
g2
Ntp129
Rp130
(dp131
g13
I01
sg14
F1.247646792688985
sg15
g128
sbs(I-38
I11
tp132
g0
(g9
g2
Ntp133
Rp134
(dp135
g13
I01
sg14
F1.2141889360942708
sg15
g132
sbs(I-37
I11
tp136
g0
(g9
g2
Ntp137
Rp138
(dp139
g13
I01
sg14
F-1.2412086408848912
sg15
g136
sbs(I11
I0
tp140
g0
(g9
g2
Ntp141
Rp142
(dp143
g13
I01
sg14
F-1.0110763027988496
sg15
g140
sbs(I-19
I0
tp144
g0
(g9
g2
Ntp145
Rp146
(dp147
g13
I01
sg14
F2.2401536472550125
sg15
g144
sbs(I-14
I0
tp148
g0
(g9
g2
Ntp149
Rp150
(dp151
g13
I01
sg14
F-0.9582124726620489
sg15
g148
sbs(I-22
I11
tp152
g0
(g9
g2
Ntp153
Rp154
(dp155
g13
I01
sg14
F-0.7682444499660082
sg15
g152
sbs(I-34
I0
tp156
g0
(g9
g2
Ntp157
Rp158
(dp159
g13
I01
sg14
F-0.6834908863084558
sg15
g156
sbs(I-29
I0
tp160
g0
(g9
g2
Ntp161
Rp162
(dp163
g13
I01
sg14
F0.1990445856055073
sg15
g160
sbs(I-39
I0
tp164
g0
(g9
g2
Ntp165
Rp166
(dp167
g13
I01
sg14
F0.3970264963437681
sg15
g164
sbs(I-6
I11
tp168
g0
(g9
g2
Ntp169
Rp170
(dp171
g13
I01
sg14
F1.144627306058221
sg15
g168
sbs(I-5
I11
tp172
g0
(g9
g2
Ntp173
Rp174
(dp175
g13
I01
sg14
F-0.4595869149436031
sg15
g172
sbs(I-1
I11
tp176
g0
(g9
g2
Ntp177
Rp178
(dp179
g13
I01
sg14
F-0.5052330189303863
sg15
g176
sbs(I-8
I0
tp180
g0
(g9
g2
Ntp181
Rp182
(dp183
g13
I01
sg14
F0.8682787431127517
sg15
g180
sbs(I-28
I0
tp184
g0
(g9
g2
Ntp185
Rp186
(dp187
g13
I01
sg14
F1.2428105880468279
sg15
g184
sbssS'nodes'
p188
(dp189
I0
g0
(cneat.genes
DefaultNodeGene
p190
g2
Ntp191
Rp192
(dp193
S'activation'
p194
S'sigmoid'
p195
sS'bias'
p196
F-2.0620203839540707
sS'response'
p197
F1.0
sg15
I0
sS'aggregation'
p198
S'sum'
p199
sbsI11
g0
(g190
g2
Ntp200
Rp201
(dp202
g194
g195
sg196
F0.6361933694071644
sg197
F1.0
sg15
I11
sg198
g199
sbssg15
I11
sS'fitness'
p203
I-1000
sb.