ccopy_reg
_reconstructor
p0
(cneat.population
Population
p1
c__builtin__
object
p2
Ntp3
Rp4
(dp5
S'generation'
p6
I9
sS'fitness_criterion'
p7
c__builtin__
max
p8
sS'k'
p9
I0
sS'reporters'
p10
g0
(cneat.reporting
ReporterSet
p11
g2
Ntp12
Rp13
(dp14
g10
(lp15
g0
(cneat.statistics
StatisticsReporter
p16
g2
Ntp17
Rp18
(dp19
S'most_fit_genomes'
p20
(lp21
g0
(cneat.genome
DefaultGenome
p22
g2
Ntp23
Rp24
(dp25
S'connections'
p26
(dp27
(I-23
I0
tp28
g0
(cneat.genes
DefaultConnectionGene
p29
g2
Ntp30
Rp31
(dp32
S'enabled'
p33
I01
sS'weight'
p34
F0.26742657533104164
sS'key'
p35
g28
sbs(I-26
I7
tp36
g0
(g29
g2
Ntp37
Rp38
(dp39
g33
I01
sg34
F0.20341918627698607
sg35
g36
sbs(I-1
I0
tp40
g0
(g29
g2
Ntp41
Rp42
(dp43
g33
I01
sg34
F-0.17533149091813938
sg35
g40
sbs(I-38
I0
tp44
g0
(g29
g2
Ntp45
Rp46
(dp47
g33
I01
sg34
F-0.5465950050823178
sg35
g44
sbs(I-17
I0
tp48
g0
(g29
g2
Ntp49
Rp50
(dp51
g33
I01
sg34
F-0.4971234989605404
sg35
g48
sbs(I-39
I7
tp52
g0
(g29
g2
Ntp53
Rp54
(dp55
g33
I01
sg34
F-2.1618428032297463
sg35
g52
sbs(I-7
I0
tp56
g0
(g29
g2
Ntp57
Rp58
(dp59
g33
I01
sg34
F0.9469636123736522
sg35
g56
sbs(I-19
I7
tp60
g0
(g29
g2
Ntp61
Rp62
(dp63
g33
I01
sg34
F-0.9108072565156132
sg35
g60
sbs(I-10
I7
tp64
g0
(g29
g2
Ntp65
Rp66
(dp67
g33
I01
sg34
F-1.4011588222150912
sg35
g64
sbs(I-27
I0
tp68
g0
(g29
g2
Ntp69
Rp70
(dp71
g33
I01
sg34
F-1.0466422975570295
sg35
g68
sbs(I-6
I7
tp72
g0
(g29
g2
Ntp73
Rp74
(dp75
g33
I01
sg34
F-0.7804785982856973
sg35
g72
sbs(I-36
I7
tp76
g0
(g29
g2
Ntp77
Rp78
(dp79
g33
I01
sg34
F0.6497010984468208
sg35
g76
sbs(I-23
I7
tp80
g0
(g29
g2
Ntp81
Rp82
(dp83
g33
I01
sg34
F0.3554431075462582
sg35
g80
sbs(I-37
I0
tp84
g0
(g29
g2
Ntp85
Rp86
(dp87
g33
I01
sg34
F-0.8352585167714316
sg35
g84
sbs(I-3
I7
tp88
g0
(g29
g2
Ntp89
Rp90
(dp91
g33
I01
sg34
F-0.25489256130274757
sg35
g88
sbs(I-11
I0
tp92
g0
(g29
g2
Ntp93
Rp94
(dp95
g33
I01
sg34
F-0.37581239413647016
sg35
g92
sbs(I-1
I7
tp96
g0
(g29
g2
Ntp97
Rp98
(dp99
g33
I01
sg34
F-1.174117416485048
sg35
g96
sbs(I-12
I0
tp100
g0
(g29
g2
Ntp101
Rp102
(dp103
g33
I01
sg34
F2.4842684218302162
sg35
g100
sbs(I-7
I7
tp104
g0
(g29
g2
Ntp105
Rp106
(dp107
g33
I01
sg34
F1.0950810092934404
sg35
g104
sbs(I-21
I0
tp108
g0
(g29
g2
Ntp109
Rp110
(dp111
g33
I01
sg34
F1.2628020402372198
sg35
g108
sbs(I-41
I0
tp112
g0
(g29
g2
Ntp113
Rp114
(dp115
g33
I01
sg34
F-0.5664493604302203
sg35
g112
sbs(I-17
I7
tp116
g0
(g29
g2
Ntp117
Rp118
(dp119
g33
I01
sg34
F0.11655721460752838
sg35
g116
sbs(I-36
I0
tp120
g0
(g29
g2
Ntp121
Rp122
(dp123
g33
I01
sg34
F0.5822866157703033
sg35
g120
sbs(I-31
I0
tp124
g0
(g29
g2
Ntp125
Rp126
(dp127
g33
I01
sg34
F-0.37597413756828657
sg35
g124
sbs(I-34
I7
tp128
g0
(g29
g2
Ntp129
Rp130
(dp131
g33
I01
sg34
F-0.9454725522607473
sg35
g128
sbs(I-30
I7
tp132
g0
(g29
g2
Ntp133
Rp134
(dp135
g33
I01
sg34
F0.8902278011503083
sg35
g132
sbs(I-21
I7
tp136
g0
(g29
g2
Ntp137
Rp138
(dp139
g33
I01
sg34
F0.07777600835611695
sg35
g136
sbs(I-20
I0
tp140
g0
(g29
g2
Ntp141
Rp142
(dp143
g33
I01
sg34
F0.4173099909578856
sg35
g140
sbs(I-14
I7
tp144
g0
(g29
g2
Ntp145
Rp146
(dp147
g33
I01
sg34
F-0.24772390399309574
sg35
g144
sbs(I-5
I7
tp148
g0
(g29
g2
Ntp149
Rp150
(dp151
g33
I01
sg34
F-0.21067217507750596
sg35
g148
sbs(I-4
I0
tp152
g0
(g29
g2
Ntp153
Rp154
(dp155
g33
I01
sg34
F0.3890201620841737
sg35
g152
sbs(I-40
I0
tp156
g0
(g29
g2
Ntp157
Rp158
(dp159
g33
I01
sg34
F-0.46949802777152333
sg35
g156
sbs(I-2
I7
tp160
g0
(g29
g2
Ntp161
Rp162
(dp163
g33
I01
sg34
F-1.1862114924668152
sg35
g160
sbs(I-41
I7
tp164
g0
(g29
g2
Ntp165
Rp166
(dp167
g33
I01
sg34
F1.2165895241871165
sg35
g164
sbs(I-19
I0
tp168
g0
(g29
g2
Ntp169
Rp170
(dp171
g33
I01
sg34
F-0.4474342207691332
sg35
g168
sbs(I-34
I0
tp172
g0
(g29
g2
Ntp173
Rp174
(dp175
g33
I01
sg34
F0.42890543061131636
sg35
g172
sbs(I-15
I7
tp176
g0
(g29
g2
Ntp177
Rp178
(dp179
g33
I01
sg34
F0.07811253516954995
sg35
g176
sbs(I-29
I0
tp180
g0
(g29
g2
Ntp181
Rp182
(dp183
g33
I01
sg34
F-2.5061977797730046
sg35
g180
sbs(I-24
I0
tp184
g0
(g29
g2
Ntp185
Rp186
(dp187
g33
I01
sg34
F-0.1835848095214438
sg35
g184
sbs(I-25
I7
tp188
g0
(g29
g2
Ntp189
Rp190
(dp191
g33
I01
sg34
F1.0703957107618125
sg35
g188
sbs(I-3
I0
tp192
g0
(g29
g2
Ntp193
Rp194
(dp195
g33
I01
sg34
F1.3108107266890008
sg35
g192
sbs(I-39
I0
tp196
g0
(g29
g2
Ntp197
Rp198
(dp199
g33
I01
sg34
F0.950330283317114
sg35
g196
sbs(I-29
I7
tp200
g0
(g29
g2
Ntp201
Rp202
(dp203
g33
I01
sg34
F0.2502007166946435
sg35
g200
sbs(I-9
I7
tp204
g0
(g29
g2
Ntp205
Rp206
(dp207
g33
I01
sg34
F0.8309322268922128
sg35
g204
sbssS'nodes'
p208
(dp209
I0
g0
(cneat.genes
DefaultNodeGene
p210
g2
Ntp211
Rp212
(dp213
S'activation'
p214
S'sigmoid'
p215
sS'bias'
p216
F0.5270131916765463
sS'response'
p217
F1.0
sg35
I0
sS'aggregation'
p218
S'sum'
p219
sbsI7
g0
(g210
g2
Ntp220
Rp221
(dp222
g214
g215
sg216
F1.2783921517278032
sg217
F1.0
sg35
I7
sg218
g219
sbssg35
I7
sS'fitness'
p223
F17.1
sbag0
(g22
g2
Ntp224
Rp225
(dp226
g26
(dp227
g28
g0
(g29
g2
Ntp228
Rp229
(dp230
g33
I01
sg34
F0.15005949265123808
sg35
g28
sbsg36
g0
(g29
g2
Ntp231
Rp232
(dp233
g33
I01
sg34
F-0.005338019085784962
sg35
g36
sbsg40
g0
(g29
g2
Ntp234
Rp235
(dp236
g33
I01
sg34
F0.15967553377055993
sg35
g40
sbsg44
g0
(g29
g2
Ntp237
Rp238
(dp239
g33
I01
sg34
F-1.405116089690054
sg35
g44
sbsg48
g0
(g29
g2
Ntp240
Rp241
(dp242
g33
I01
sg34
F-0.11130015131390675
sg35
g48
sbsg52
g0
(g29
g2
Ntp243
Rp244
(dp245
g33
I01
sg34
F-2.0884989225015844
sg35
g52
sbsg156
g0
(g29
g2
Ntp246
Rp247
(dp248
g33
I01
sg34
F-0.31149253954472017
sg35
g156
sbsg56
g0
(g29
g2
Ntp249
Rp250
(dp251
g33
I01
sg34
F0.6019954591359519
sg35
g56
sbsg60
g0
(g29
g2
Ntp252
Rp253
(dp254
g33
I01
sg34
F-0.8689886384540115
sg35
g60
sbsg64
g0
(g29
g2
Ntp255
Rp256
(dp257
g33
I01
sg34
F-1.173304068257671
sg35
g64
sbsg68
g0
(g29
g2
Ntp258
Rp259
(dp260
g33
I01
sg34
F1.1958107400414164
sg35
g68
sbsg72
g0
(g29
g2
Ntp261
Rp262
(dp263
g33
I01
sg34
F-1.1853707076347364
sg35
g72
sbsg76
g0
(g29
g2
Ntp264
Rp265
(dp266
g33
I01
sg34
F0.18152700602526256
sg35
g76
sbsg84
g0
(g29
g2
Ntp267
Rp268
(dp269
g33
I01
sg34
F-1.2292782959999378
sg35
g84
sbsg88
g0
(g29
g2
Ntp270
Rp271
(dp272
g33
I01
sg34
F-1.1497817551264014
sg35
g88
sbsg92
g0
(g29
g2
Ntp273
Rp274
(dp275
g33
I01
sg34
F-0.37581239413647016
sg35
g92
sbsg160
g0
(g29
g2
Ntp276
Rp277
(dp278
g33
I01
sg34
F1.3211546441781552
sg35
g160
sbsg104
g0
(g29
g2
Ntp279
Rp280
(dp281
g33
I01
sg34
F1.6797493154112115
sg35
g104
sbsg108
g0
(g29
g2
Ntp282
Rp283
(dp284
g33
I01
sg34
F1.817727371187412
sg35
g108
sbsg112
g0
(g29
g2
Ntp285
Rp286
(dp287
g33
I01
sg34
F-0.7177165838655432
sg35
g112
sbsg116
g0
(g29
g2
Ntp288
Rp289
(dp290
g33
I01
sg34
F0.11655721460752838
sg35
g116
sbsg120
g0
(g29
g2
Ntp291
Rp292
(dp293
g33
I01
sg34
F-1.0383424219790058
sg35
g120
sbs(I-14
I21
tp294
g0
(g29
g2
Ntp295
Rp296
(dp297
g33
I00
sg34
F1.4953873026974582
sg35
g294
sbsg128
g0
(g29
g2
Ntp298
Rp299
(dp300
g33
I01
sg34
F-1.4941107152022752
sg35
g128
sbsg132
g0
(g29
g2
Ntp301
Rp302
(dp303
g33
I01
sg34
F0.8347832014188095
sg35
g132
sbsg136
g0
(g29
g2
Ntp304
Rp305
(dp306
g33
I01
sg34
F0.586549808334986
sg35
g136
sbsg140
g0
(g29
g2
Ntp307
Rp308
(dp309
g33
I01
sg34
F0.4173099909578856
sg35
g140
sbsg144
g0
(g29
g2
Ntp310
Rp311
(dp312
g33
I00
sg34
F-0.5530786686301951
sg35
g144
sbsg148
g0
(g29
g2
Ntp313
Rp314
(dp315
g33
I01
sg34
F-1.1133686456006646
sg35
g148
sbsg152
g0
(g29
g2
Ntp316
Rp317
(dp318
g33
I01
sg34
F0.1512177150674514
sg35
g152
sbsg100
g0
(g29
g2
Ntp319
Rp320
(dp321
g33
I01
sg34
F2.228074066734002
sg35
g100
sbsg96
g0
(g29
g2
Ntp322
Rp323
(dp324
g33
I01
sg34
F-1.492951850272531
sg35
g96
sbsg124
g0
(g29
g2
Ntp325
Rp326
(dp327
g33
I01
sg34
F-0.6240137426855372
sg35
g124
sbsg168
g0
(g29
g2
Ntp328
Rp329
(dp330
g33
I01
sg34
F1.3692828685121972
sg35
g168
sbsg164
g0
(g29
g2
Ntp331
Rp332
(dp333
g33
I01
sg34
F1.2310283445403238
sg35
g164
sbsg172
g0
(g29
g2
Ntp334
Rp335
(dp336
g33
I01
sg34
F0.5660107410493538
sg35
g172
sbsg176
g0
(g29
g2
Ntp337
Rp338
(dp339
g33
I01
sg34
F0.07811253516954995
sg35
g176
sbsg180
g0
(g29
g2
Ntp340
Rp341
(dp342
g33
I01
sg34
F-2.8329524024812045
sg35
g180
sbsg184
g0
(g29
g2
Ntp343
Rp344
(dp345
g33
I01
sg34
F-0.1835848095214438
sg35
g184
sbsg188
g0
(g29
g2
Ntp346
Rp347
(dp348
g33
I01
sg34
F0.6331675474662859
sg35
g188
sbsg192
g0
(g29
g2
Ntp349
Rp350
(dp351
g33
I01
sg34
F1.9327570264811775
sg35
g192
sbsg196
g0
(g29
g2
Ntp352
Rp353
(dp354
g33
I01
sg34
F0.07892009606457898
sg35
g196
sbsg200
g0
(g29
g2
Ntp355
Rp356
(dp357
g33
I01
sg34
F-0.37385639687471384
sg35
g200
sbs(I21
I7
tp358
g0
(g29
g2
Ntp359
Rp360
(dp361
g33
I01
sg34
F-0.04954732484739868
sg35
g358
sbsg204
g0
(g29
g2
Ntp362
Rp363
(dp364
g33
I01
sg34
F1.68200132587814
sg35
g204
sbssg208
(dp365
I0
g0
(g210
g2
Ntp366
Rp367
(dp368
g214
g215
sg216
F-0.95577562562832
sg217
F1.0
sg35
I0
sg218
g219
sbsI21
g0
(g210
g2
Ntp369
Rp370
(dp371
g214
g215
sg216
F1.500338890488495
sg217
F1.0
sg35
I21
sg218
g219
sbsI7
g0
(g210
g2
Ntp372
Rp373
(dp374
g214
g215
sg216
F1.5752547597789635
sg217
F1.0
sg35
I7
sg218
g219
sbssg35
I23
sg223
F18.4
sbag0
(g22
g2
Ntp375
Rp376
(dp377
g26
(dp378
g28
g0
(g29
g2
Ntp379
Rp380
(dp381
g33
I01
sg34
F0.020091045818231235
sg35
g28
sbsg36
g0
(g29
g2
Ntp382
Rp383
(dp384
g33
I01
sg34
F1.4761189873643772
sg35
g36
sbsg40
g0
(g29
g2
Ntp385
Rp386
(dp387
g33
I01
sg34
F0.3301469562221505
sg35
g40
sbsg44
g0
(g29
g2
Ntp388
Rp389
(dp390
g33
I01
sg34
F-0.5465950050823178
sg35
g44
sbsg48
g0
(g29
g2
Ntp391
Rp392
(dp393
g33
I01
sg34
F-0.1548779653967749
sg35
g48
sbsg52
g0
(g29
g2
Ntp394
Rp395
(dp396
g33
I01
sg34
F-1.481977343632467
sg35
g52
sbsg156
g0
(g29
g2
Ntp397
Rp398
(dp399
g33
I01
sg34
F-0.5267580645523525
sg35
g156
sbsg56
g0
(g29
g2
Ntp400
Rp401
(dp402
g33
I01
sg34
F0.19887696199726046
sg35
g56
sbsg60
g0
(g29
g2
Ntp403
Rp404
(dp405
g33
I01
sg34
F-1.3701481874148393
sg35
g60
sbsg64
g0
(g29
g2
Ntp406
Rp407
(dp408
g33
I01
sg34
F-1.2561149991313159
sg35
g64
sbsg68
g0
(g29
g2
Ntp409
Rp410
(dp411
g33
I01
sg34
F-0.8899096617068665
sg35
g68
sbsg72
g0
(g29
g2
Ntp412
Rp413
(dp414
g33
I01
sg34
F-1.453244753754365
sg35
g72
sbsg76
g0
(g29
g2
Ntp415
Rp416
(dp417
g33
I01
sg34
F0.017519672050253954
sg35
g76
sbsg80
g0
(g29
g2
Ntp418
Rp419
(dp420
g33
I00
sg34
F0.8407448719761372
sg35
g80
sbsg84
g0
(g29
g2
Ntp421
Rp422
(dp423
g33
I01
sg34
F-1.4616816450011956
sg35
g84
sbsg88
g0
(g29
g2
Ntp424
Rp425
(dp426
g33
I01
sg34
F-0.2934725561067832
sg35
g88
sbsg92
g0
(g29
g2
Ntp427
Rp428
(dp429
g33
I01
sg34
F0.33389376241279634
sg35
g92
sbsg160
g0
(g29
g2
Ntp430
Rp431
(dp432
g33
I01
sg34
F-0.8191897317084309
sg35
g160
sbsg104
g0
(g29
g2
Ntp433
Rp434
(dp435
g33
I01
sg34
F0.40129789798681265
sg35
g104
sbsg108
g0
(g29
g2
Ntp436
Rp437
(dp438
g33
I01
sg34
F0.8458698618017705
sg35
g108
sbsg112
g0
(g29
g2
Ntp439
Rp440
(dp441
g33
I00
sg34
F-0.5664493604302203
sg35
g112
sbsg116
g0
(g29
g2
Ntp442
Rp443
(dp444
g33
I01
sg34
F-0.2980731190678406
sg35
g116
sbsg120
g0
(g29
g2
Ntp445
Rp446
(dp447
g33
I01
sg34
F1.0199715169957861
sg35
g120
sbs(I22
I7
tp448
g0
(g29
g2
Ntp449
Rp450
(dp451
g33
I01
sg34
F0.3554431075462582
sg35
g448
sbsg124
g0
(g29
g2
Ntp452
Rp453
(dp454
g33
I01
sg34
F-0.6599276296008152
sg35
g124
sbsg128
g0
(g29
g2
Ntp455
Rp456
(dp457
g33
I01
sg34
F-0.9454725522607473
sg35
g128
sbsg132
g0
(g29
g2
Ntp458
Rp459
(dp460
g33
I01
sg34
F1.4876716696201129
sg35
g132
sbsg136
g0
(g29
g2
Ntp461
Rp462
(dp463
g33
I01
sg34
F-1.1659664284468356
sg35
g136
sbsg140
g0
(g29
g2
Ntp464
Rp465
(dp466
g33
I01
sg34
F0.6775146843252442
sg35
g140
sbsg144
g0
(g29
g2
Ntp467
Rp468
(dp469
g33
I01
sg34
F0.25872029184352285
sg35
g144
sbsg148
g0
(g29
g2
Ntp470
Rp471
(dp472
g33
I01
sg34
F-0.21067217507750596
sg35
g148
sbsg152
g0
(g29
g2
Ntp473
Rp474
(dp475
g33
I01
sg34
F0.3890201620841737
sg35
g152
sbsg100
g0
(g29
g2
Ntp476
Rp477
(dp478
g33
I01
sg34
F2.4842684218302162
sg35
g100
sbsg96
g0
(g29
g2
Ntp479
Rp480
(dp481
g33
I01
sg34
F-1.2244373364345724
sg35
g96
sbsg164
g0
(g29
g2
Ntp482
Rp483
(dp484
g33
I01
sg34
F0.9602333342721696
sg35
g164
sbsg168
g0
(g29
g2
Ntp485
Rp486
(dp487
g33
I01
sg34
F-1.3505152163774357
sg35
g168
sbsg172
g0
(g29
g2
Ntp488
Rp489
(dp490
g33
I01
sg34
F1.4088259664493687
sg35
g172
sbsg176
g0
(g29
g2
Ntp491
Rp492
(dp493
g33
I01
sg34
F0.6398478706178788
sg35
g176
sbsg180
g0
(g29
g2
Ntp494
Rp495
(dp496
g33
I01
sg34
F0.4098437669345315
sg35
g180
sbsg184
g0
(g29
g2
Ntp497
Rp498
(dp499
g33
I01
sg34
F-0.39802306393372944
sg35
g184
sbs(I-23
I22
tp500
g0
(g29
g2
Ntp501
Rp502
(dp503
g33
I01
sg34
F1.8211796573588428
sg35
g500
sbsg188
g0
(g29
g2
Ntp504
Rp505
(dp506
g33
I01
sg34
F1.4322190717107144
sg35
g188
sbsg192
g0
(g29
g2
Ntp507
Rp508
(dp509
g33
I01
sg34
F1.82910366095096
sg35
g192
sbsg196
g0
(g29
g2
Ntp510
Rp511
(dp512
g33
I01
sg34
F1.6042305855815167
sg35
g196
sbsg200
g0
(g29
g2
Ntp513
Rp514
(dp515
g33
I01
sg34
F0.43326292978332903
sg35
g200
sbsg204
g0
(g29
g2
Ntp516
Rp517
(dp518
g33
I01
sg34
F0.7802837437614183
sg35
g204
sbssg208
(dp519
I0
g0
(g210
g2
Ntp520
Rp521
(dp522
g214
g215
sg216
F-0.5440804766884955
sg217
F1.0
sg35
I0
sg218
g219
sbsI22
g0
(g210
g2
Ntp523
Rp524
(dp525
g214
g215
sg216
F-1.8000905984390263
sg217
F1.0
sg35
I22
sg218
g219
sbsI7
g0
(g210
g2
Ntp526
Rp527
(dp528
g214
g215
sg216
F1.5567215058297992
sg217
F1.0
sg35
I7
sg218
g219
sbssg35
I42
sg223
F17.4
sbag0
(g22
g2
Ntp529
Rp530
(dp531
g26
(dp532
(I-14
I23
tp533
g0
(g29
g2
Ntp534
Rp535
(dp536
g33
I01
sg34
F1.3487606789412594
sg35
g533
sbsg28
g0
(g29
g2
Ntp537
Rp538
(dp539
g33
I01
sg34
F-1.3432062496131276
sg35
g28
sbsg36
g0
(g29
g2
Ntp540
Rp541
(dp542
g33
I01
sg34
F0.511114462224139
sg35
g36
sbsg40
g0
(g29
g2
Ntp543
Rp544
(dp545
g33
I01
sg34
F-0.9056976386988693
sg35
g40
sbsg44
g0
(g29
g2
Ntp546
Rp547
(dp548
g33
I01
sg34
F-1.3461280052916424
sg35
g44
sbsg48
g0
(g29
g2
Ntp549
Rp550
(dp551
g33
I01
sg34
F0.39075226756705195
sg35
g48
sbsg52
g0
(g29
g2
Ntp552
Rp553
(dp554
g33
I01
sg34
F-1.9175899562640417
sg35
g52
sbsg156
g0
(g29
g2
Ntp555
Rp556
(dp557
g33
I01
sg34
F-0.09164104030518808
sg35
g156
sbsg56
g0
(g29
g2
Ntp558
Rp559
(dp560
g33
I01
sg34
F-0.22881002285111612
sg35
g56
sbsg60
g0
(g29
g2
Ntp561
Rp562
(dp563
g33
I01
sg34
F-0.3889475078109317
sg35
g60
sbsg64
g0
(g29
g2
Ntp564
Rp565
(dp566
g33
I01
sg34
F-3.080323336815794
sg35
g64
sbsg68
g0
(g29
g2
Ntp567
Rp568
(dp569
g33
I01
sg34
F0.6694591239970564
sg35
g68
sbsg72
g0
(g29
g2
Ntp570
Rp571
(dp572
g33
I01
sg34
F-0.5047774503630174
sg35
g72
sbsg76
g0
(g29
g2
Ntp573
Rp574
(dp575
g33
I01
sg34
F0.1097592305679076
sg35
g76
sbs(I23
I7
tp576
g0
(g29
g2
Ntp577
Rp578
(dp579
g33
I01
sg34
F-0.04843354715546691
sg35
g576
sbsg84
g0
(g29
g2
Ntp580
Rp581
(dp582
g33
I01
sg34
F-0.8173414318380775
sg35
g84
sbsg88
g0
(g29
g2
Ntp583
Rp584
(dp585
g33
I01
sg34
F0.33518363770910076
sg35
g88
sbsg92
g0
(g29
g2
Ntp586
Rp587
(dp588
g33
I01
sg34
F-0.642673099694987
sg35
g92
sbsg160
g0
(g29
g2
Ntp589
Rp590
(dp591
g33
I01
sg34
F-0.3888069164159649
sg35
g160
sbsg104
g0
(g29
g2
Ntp592
Rp593
(dp594
g33
I01
sg34
F2.5451124452716463
sg35
g104
sbsg108
g0
(g29
g2
Ntp595
Rp596
(dp597
g33
I01
sg34
F-0.15201881307664455
sg35
g108
sbsg112
g0
(g29
g2
Ntp598
Rp599
(dp600
g33
I01
sg34
F-1.4809698000056801
sg35
g112
sbsg116
g0
(g29
g2
Ntp601
Rp602
(dp603
g33
I01
sg34
F0.7603498844662832
sg35
g116
sbsg120
g0
(g29
g2
Ntp604
Rp605
(dp606
g33
I01
sg34
F0.7207007677802407
sg35
g120
sbsg124
g0
(g29
g2
Ntp607
Rp608
(dp609
g33
I01
sg34
F-0.7210193269430225
sg35
g124
sbsg128
g0
(g29
g2
Ntp610
Rp611
(dp612
g33
I01
sg34
F-0.8646141231399294
sg35
g128
sbsg132
g0
(g29
g2
Ntp613
Rp614
(dp615
g33
I01
sg34
F2.1021579001597237
sg35
g132
sbsg136
g0
(g29
g2
Ntp616
Rp617
(dp618
g33
I01
sg34
F-0.045297524252794985
sg35
g136
sbsg140
g0
(g29
g2
Ntp619
Rp620
(dp621
g33
I01
sg34
F-0.8150859947083192
sg35
g140
sbsg144
g0
(g29
g2
Ntp622
Rp623
(dp624
g33
I00
sg34
F-0.043183419459027594
sg35
g144
sbsg148
g0
(g29
g2
Ntp625
Rp626
(dp627
g33
I01
sg34
F-0.8660259080096305
sg35
g148
sbsg152
g0
(g29
g2
Ntp628
Rp629
(dp630
g33
I01
sg34
F0.21345934777462938
sg35
g152
sbsg100
g0
(g29
g2
Ntp631
Rp632
(dp633
g33
I01
sg34
F2.4389078804528688
sg35
g100
sbsg96
g0
(g29
g2
Ntp634
Rp635
(dp636
g33
I01
sg34
F2.88516768204658
sg35
g96
sbsg164
g0
(g29
g2
Ntp637
Rp638
(dp639
g33
I01
sg34
F1.6432342089949294
sg35
g164
sbsg168
g0
(g29
g2
Ntp640
Rp641
(dp642
g33
I01
sg34
F1.1012151590328887
sg35
g168
sbsg172
g0
(g29
g2
Ntp643
Rp644
(dp645
g33
I01
sg34
F0.24454441130208965
sg35
g172
sbsg176
g0
(g29
g2
Ntp646
Rp647
(dp648
g33
I01
sg34
F-1.143372024100381
sg35
g176
sbsg180
g0
(g29
g2
Ntp649
Rp650
(dp651
g33
I01
sg34
F-1.6672673929535622
sg35
g180
sbsg184
g0
(g29
g2
Ntp652
Rp653
(dp654
g33
I01
sg34
F-1.2867337301921566
sg35
g184
sbsg188
g0
(g29
g2
Ntp655
Rp656
(dp657
g33
I01
sg34
F0.5909673386850077
sg35
g188
sbsg192
g0
(g29
g2
Ntp658
Rp659
(dp660
g33
I01
sg34
F0.15531066337470104
sg35
g192
sbsg196
g0
(g29
g2
Ntp661
Rp662
(dp663
g33
I01
sg34
F1.2724434216961913
sg35
g196
sbsg200
g0
(g29
g2
Ntp664
Rp665
(dp666
g33
I01
sg34
F-0.9692783926156536
sg35
g200
sbsg204
g0
(g29
g2
Ntp667
Rp668
(dp669
g33
I01
sg34
F1.1601435920821792
sg35
g204
sbssg208
(dp670
I0
g0
(g210
g2
Ntp671
Rp672
(dp673
g214
g215
sg216
F-1.1113339374488507
sg217
F1.0
sg35
I0
sg218
g219
sbsI7
g0
(g210
g2
Ntp674
Rp675
(dp676
g214
g215
sg216
F1.2221545864474073
sg217
F1.0
sg35
I7
sg218
g219
sbsI23
g0
(g210
g2
Ntp677
Rp678
(dp679
g214
g215
sg216
F-0.01780151641256006
sg217
F1.0
sg35
I23
sg218
g219
sbssg35
I53
sg223
F16.5
sbag0
(g22
g2
Ntp680
Rp681
(dp682
g26
(dp683
g533
g0
(g29
g2
Ntp684
Rp685
(dp686
g33
I01
sg34
F1.4413305658981637
sg35
g533
sbsg28
g0
(g29
g2
Ntp687
Rp688
(dp689
g33
I01
sg34
F-1.811418763043394
sg35
g28
sbsg36
g0
(g29
g2
Ntp690
Rp691
(dp692
g33
I01
sg34
F-0.8652517890947885
sg35
g36
sbsg40
g0
(g29
g2
Ntp693
Rp694
(dp695
g33
I01
sg34
F0.8013984404880115
sg35
g40
sbsg44
g0
(g29
g2
Ntp696
Rp697
(dp698
g33
I01
sg34
F-0.7928839444778547
sg35
g44
sbsg48
g0
(g29
g2
Ntp699
Rp700
(dp701
g33
I01
sg34
F-1.070488707760225
sg35
g48
sbsg52
g0
(g29
g2
Ntp702
Rp703
(dp704
g33
I01
sg34
F-2.0322032869616553
sg35
g52
sbsg156
g0
(g29
g2
Ntp705
Rp706
(dp707
g33
I01
sg34
F0.14372834010609764
sg35
g156
sbsg56
g0
(g29
g2
Ntp708
Rp709
(dp710
g33
I01
sg34
F-0.06754949162783336
sg35
g56
sbsg60
g0
(g29
g2
Ntp711
Rp712
(dp713
g33
I01
sg34
F-0.5268767742944843
sg35
g60
sbsg64
g0
(g29
g2
Ntp714
Rp715
(dp716
g33
I01
sg34
F-1.1847375913638416
sg35
g64
sbsg68
g0
(g29
g2
Ntp717
Rp718
(dp719
g33
I01
sg34
F0.3229609632983496
sg35
g68
sbsg72
g0
(g29
g2
Ntp720
Rp721
(dp722
g33
I01
sg34
F-0.2862201556555107
sg35
g72
sbsg76
g0
(g29
g2
Ntp723
Rp724
(dp725
g33
I01
sg34
F-0.3045786178427145
sg35
g76
sbsg576
g0
(g29
g2
Ntp726
Rp727
(dp728
g33
I01
sg34
F0.37009673124657916
sg35
g576
sbsg84
g0
(g29
g2
Ntp729
Rp730
(dp731
g33
I01
sg34
F-0.580171868882753
sg35
g84
sbsg88
g0
(g29
g2
Ntp732
Rp733
(dp734
g33
I01
sg34
F-0.3106626248683527
sg35
g88
sbsg92
g0
(g29
g2
Ntp735
Rp736
(dp737
g33
I01
sg34
F-0.6495791160138557
sg35
g92
sbsg160
g0
(g29
g2
Ntp738
Rp739
(dp740
g33
I01
sg34
F-1.2798921634737148
sg35
g160
sbsg104
g0
(g29
g2
Ntp741
Rp742
(dp743
g33
I01
sg34
F-1.0898068524185565
sg35
g104
sbsg108
g0
(g29
g2
Ntp744
Rp745
(dp746
g33
I01
sg34
F0.2855366476034617
sg35
g108
sbsg112
g0
(g29
g2
Ntp747
Rp748
(dp749
g33
I00
sg34
F-2.071107563771527
sg35
g112
sbsg116
g0
(g29
g2
Ntp750
Rp751
(dp752
g33
I01
sg34
F0.2415095794161558
sg35
g116
sbsg120
g0
(g29
g2
Ntp753
Rp754
(dp755
g33
I01
sg34
F0.8641479455859604
sg35
g120
sbsg294
g0
(g29
g2
Ntp756
Rp757
(dp758
g33
I00
sg34
F2.1236720297813387
sg35
g294
sbsg128
g0
(g29
g2
Ntp759
Rp760
(dp761
g33
I01
sg34
F-0.6384292185930505
sg35
g128
sbsg132
g0
(g29
g2
Ntp762
Rp763
(dp764
g33
I01
sg34
F1.8548558077787436
sg35
g132
sbsg136
g0
(g29
g2
Ntp765
Rp766
(dp767
g33
I01
sg34
F1.008625197577925
sg35
g136
sbsg140
g0
(g29
g2
Ntp768
Rp769
(dp770
g33
I01
sg34
F0.06916610770284176
sg35
g140
sbsg144
g0
(g29
g2
Ntp771
Rp772
(dp773
g33
I00
sg34
F0.4704953139285686
sg35
g144
sbsg148
g0
(g29
g2
Ntp774
Rp775
(dp776
g33
I01
sg34
F-0.7316444795383624
sg35
g148
sbsg152
g0
(g29
g2
Ntp777
Rp778
(dp779
g33
I01
sg34
F-0.6004202684461255
sg35
g152
sbsg100
g0
(g29
g2
Ntp780
Rp781
(dp782
g33
I01
sg34
F2.2303303247342354
sg35
g100
sbsg96
g0
(g29
g2
Ntp783
Rp784
(dp785
g33
I01
sg34
F2.977015826041291
sg35
g96
sbsg124
g0
(g29
g2
Ntp786
Rp787
(dp788
g33
I01
sg34
F-0.033391717889992734
sg35
g124
sbsg168
g0
(g29
g2
Ntp789
Rp790
(dp791
g33
I01
sg34
F0.42173926145781826
sg35
g168
sbsg164
g0
(g29
g2
Ntp792
Rp793
(dp794
g33
I01
sg34
F2.4830576546686567
sg35
g164
sbsg172
g0
(g29
g2
Ntp795
Rp796
(dp797
g33
I01
sg34
F0.3260069382267585
sg35
g172
sbsg176
g0
(g29
g2
Ntp798
Rp799
(dp800
g33
I01
sg34
F-0.7002043848989358
sg35
g176
sbsg180
g0
(g29
g2
Ntp801
Rp802
(dp803
g33
I01
sg34
F-1.4906444122145783
sg35
g180
sbsg184
g0
(g29
g2
Ntp804
Rp805
(dp806
g33
I01
sg34
F-1.0887590955448487
sg35
g184
sbsg188
g0
(g29
g2
Ntp807
Rp808
(dp809
g33
I01
sg34
F0.11832718542220905
sg35
g188
sbsg192
g0
(g29
g2
Ntp810
Rp811
(dp812
g33
I01
sg34
F-1.2381379452960317
sg35
g192
sbsg196
g0
(g29
g2
Ntp813
Rp814
(dp815
g33
I01
sg34
F1.5259214007129502
sg35
g196
sbsg200
g0
(g29
g2
Ntp816
Rp817
(dp818
g33
I01
sg34
F-0.861477106007956
sg35
g200
sbsg358
g0
(g29
g2
Ntp819
Rp820
(dp821
g33
I01
sg34
F-0.42245658700949873
sg35
g358
sbsg204
g0
(g29
g2
Ntp822
Rp823
(dp824
g33
I01
sg34
F1.8320035185188206
sg35
g204
sbssg208
(dp825
I0
g0
(g210
g2
Ntp826
Rp827
(dp828
g214
g215
sg216
F-0.95577562562832
sg217
F1.0
sg35
I0
sg218
g219
sbsI7
g0
(g210
g2
Ntp829
Rp830
(dp831
g214
g215
sg216
F1.5060700983461492
sg217
F1.0
sg35
I7
sg218
g219
sbsI21
g0
(g210
g2
Ntp832
Rp833
(dp834
g214
g215
sg216
F-1.604539761135185
sg217
F1.0
sg35
I21
sg218
g219
sbsI23
g0
(g210
g2
Ntp835
Rp836
(dp837
g214
g215
sg216
F0.04070885216463377
sg217
F1.0
sg35
I23
sg218
g219
sbssg35
I69
sg223
F18.2
sbag0
(g22
g2
Ntp838
Rp839
(dp840
g26
(dp841
g533
g0
(g29
g2
Ntp842
Rp843
(dp844
g33
I01
sg34
F2.2619305322151195
sg35
g533
sbsg28
g0
(g29
g2
Ntp845
Rp846
(dp847
g33
I01
sg34
F-2.0696965999575
sg35
g28
sbsg40
g0
(g29
g2
Ntp848
Rp849
(dp850
g33
I01
sg34
F-0.4093502638248252
sg35
g40
sbsg44
g0
(g29
g2
Ntp851
Rp852
(dp853
g33
I01
sg34
F-1.0549963828006517
sg35
g44
sbsg48
g0
(g29
g2
Ntp854
Rp855
(dp856
g33
I01
sg34
F0.39075226756705195
sg35
g48
sbsg100
g0
(g29
g2
Ntp857
Rp858
(dp859
g33
I01
sg34
F2.2303303247342354
sg35
g100
sbsg56
g0
(g29
g2
Ntp860
Rp861
(dp862
g33
I01
sg34
F-1.0275828339938449
sg35
g56
sbsg68
g0
(g29
g2
Ntp863
Rp864
(dp865
g33
I01
sg34
F0.7632864896123468
sg35
g68
sbsg84
g0
(g29
g2
Ntp866
Rp867
(dp868
g33
I01
sg34
F-1.8238931736581603
sg35
g84
sbsg92
g0
(g29
g2
Ntp869
Rp870
(dp871
g33
I01
sg34
F-1.0416389870892842
sg35
g92
sbsg108
g0
(g29
g2
Ntp872
Rp873
(dp874
g33
I01
sg34
F1.8832465298382663
sg35
g108
sbsg112
g0
(g29
g2
Ntp875
Rp876
(dp877
g33
I00
sg34
F-1.4192001034010788
sg35
g112
sbsg120
g0
(g29
g2
Ntp878
Rp879
(dp880
g33
I01
sg34
F0.45646318923102586
sg35
g120
sbsg294
g0
(g29
g2
Ntp881
Rp882
(dp883
g33
I00
sg34
F1.5330918207375293
sg35
g294
sbsg140
g0
(g29
g2
Ntp884
Rp885
(dp886
g33
I01
sg34
F-0.07662583803693483
sg35
g140
sbsg152
g0
(g29
g2
Ntp887
Rp888
(dp889
g33
I01
sg34
F0.6915909532512095
sg35
g152
sbsg156
g0
(g29
g2
Ntp890
Rp891
(dp892
g33
I01
sg34
F-0.233889870756053
sg35
g156
sbsg124
g0
(g29
g2
Ntp893
Rp894
(dp895
g33
I01
sg34
F-1.6199596821083313
sg35
g124
sbsg168
g0
(g29
g2
Ntp896
Rp897
(dp898
g33
I01
sg34
F1.21518727851431
sg35
g168
sbsg172
g0
(g29
g2
Ntp899
Rp900
(dp901
g33
I01
sg34
F0.5669186691391165
sg35
g172
sbsg180
g0
(g29
g2
Ntp902
Rp903
(dp904
g33
I01
sg34
F-1.4906444122145783
sg35
g180
sbsg184
g0
(g29
g2
Ntp905
Rp906
(dp907
g33
I01
sg34
F-1.4641497430767012
sg35
g184
sbsg192
g0
(g29
g2
Ntp908
Rp909
(dp910
g33
I01
sg34
F-0.17263830529885352
sg35
g192
sbsg196
g0
(g29
g2
Ntp911
Rp912
(dp913
g33
I01
sg34
F1.6057104402597548
sg35
g196
sbssg208
(dp914
I0
g0
(g210
g2
Ntp915
Rp916
(dp917
g214
g215
sg216
F-0.40425581922751375
sg217
F1.0
sg35
I0
sg218
g219
sbsI21
g0
(g210
g2
Ntp918
Rp919
(dp920
g214
g215
sg216
F0.6473057186308622
sg217
F1.0
sg35
I21
sg218
g219
sbsI23
g0
(g210
g2
Ntp921
Rp922
(dp923
g214
g215
sg216
F-0.41908615879049765
sg217
F1.0
sg35
I23
sg218
g219
sbssg35
I81
sg223
F18.7
sbag0
(g22
g2
Ntp924
Rp925
(dp926
g26
(dp927
g533
g0
(g29
g2
Ntp928
Rp929
(dp930
g33
I01
sg34
F2.3369693707296872
sg35
g533
sbsg28
g0
(g29
g2
Ntp931
Rp932
(dp933
g33
I01
sg34
F-1.8028603174067552
sg35
g28
sbsg40
g0
(g29
g2
Ntp934
Rp935
(dp936
g33
I01
sg34
F2.2509439319376776
sg35
g40
sbsg44
g0
(g29
g2
Ntp937
Rp938
(dp939
g33
I01
sg34
F-1.0549963828006517
sg35
g44
sbsg48
g0
(g29
g2
Ntp940
Rp941
(dp942
g33
I01
sg34
F-0.18965291708646825
sg35
g48
sbsg100
g0
(g29
g2
Ntp943
Rp944
(dp945
g33
I01
sg34
F2.8865008698972323
sg35
g100
sbsg56
g0
(g29
g2
Ntp946
Rp947
(dp948
g33
I01
sg34
F-1.2094635524290773
sg35
g56
sbsg68
g0
(g29
g2
Ntp949
Rp950
(dp951
g33
I01
sg34
F0.7003684942672935
sg35
g68
sbsg84
g0
(g29
g2
Ntp952
Rp953
(dp954
g33
I01
sg34
F-1.1010703707488723
sg35
g84
sbsg92
g0
(g29
g2
Ntp955
Rp956
(dp957
g33
I01
sg34
F-1.2461606987987541
sg35
g92
sbsg108
g0
(g29
g2
Ntp958
Rp959
(dp960
g33
I01
sg34
F1.9728265542182757
sg35
g108
sbsg112
g0
(g29
g2
Ntp961
Rp962
(dp963
g33
I01
sg34
F-0.9672573642558968
sg35
g112
sbsg120
g0
(g29
g2
Ntp964
Rp965
(dp966
g33
I01
sg34
F0.8093637781764357
sg35
g120
sbsg294
g0
(g29
g2
Ntp967
Rp968
(dp969
g33
I00
sg34
F-1.2868295744659615
sg35
g294
sbsg140
g0
(g29
g2
Ntp970
Rp971
(dp972
g33
I01
sg34
F-1.0291890076667845
sg35
g140
sbsg152
g0
(g29
g2
Ntp973
Rp974
(dp975
g33
I01
sg34
F0.7579971115226758
sg35
g152
sbsg156
g0
(g29
g2
Ntp976
Rp977
(dp978
g33
I01
sg34
F0.09892139795647004
sg35
g156
sbsg124
g0
(g29
g2
Ntp979
Rp980
(dp981
g33
I01
sg34
F-2.688462913772304
sg35
g124
sbsg168
g0
(g29
g2
Ntp982
Rp983
(dp984
g33
I01
sg34
F1.2972228548581826
sg35
g168
sbsg172
g0
(g29
g2
Ntp985
Rp986
(dp987
g33
I01
sg34
F0.746520813608216
sg35
g172
sbsg180
g0
(g29
g2
Ntp988
Rp989
(dp990
g33
I01
sg34
F-2.0193724892044655
sg35
g180
sbsg184
g0
(g29
g2
Ntp991
Rp992
(dp993
g33
I01
sg34
F-0.5831392251957563
sg35
g184
sbsg192
g0
(g29
g2
Ntp994
Rp995
(dp996
g33
I01
sg34
F-0.22459028623928795
sg35
g192
sbsg196
g0
(g29
g2
Ntp997
Rp998
(dp999
g33
I01
sg34
F2.007129963605574
sg35
g196
sbssg208
(dp1000
I0
g0
(g210
g2
Ntp1001
Rp1002
(dp1003
g214
g215
sg216
F0.038251037725708356
sg217
F1.0
sg35
I0
sg218
g219
sbsI21
g0
(g210
g2
Ntp1004
Rp1005
(dp1006
g214
g215
sg216
F0.6473057186308622
sg217
F1.0
sg35
I21
sg218
g219
sbsI23
g0
(g210
g2
Ntp1007
Rp1008
(dp1009
g214
g215
sg216
F-0.8720543511427559
sg217
F1.0
sg35
I23
sg218
g219
sbssg35
I101
sg223
F18.1
sbag0
(g22
g2
Ntp1010
Rp1011
(dp1012
g26
(dp1013
g533
g0
(g29
g2
Ntp1014
Rp1015
(dp1016
g33
I01
sg34
F2.3369693707296872
sg35
g533
sbsg28
g0
(g29
g2
Ntp1017
Rp1018
(dp1019
g33
I01
sg34
F-1.8028603174067552
sg35
g28
sbsg40
g0
(g29
g2
Ntp1020
Rp1021
(dp1022
g33
I01
sg34
F2.2509439319376776
sg35
g40
sbsg44
g0
(g29
g2
Ntp1023
Rp1024
(dp1025
g33
I01
sg34
F-1.0549963828006517
sg35
g44
sbsg48
g0
(g29
g2
Ntp1026
Rp1027
(dp1028
g33
I01
sg34
F-0.18965291708646825
sg35
g48
sbsg100
g0
(g29
g2
Ntp1029
Rp1030
(dp1031
g33
I01
sg34
F2.8865008698972323
sg35
g100
sbsg56
g0
(g29
g2
Ntp1032
Rp1033
(dp1034
g33
I01
sg34
F-1.2094635524290773
sg35
g56
sbsg68
g0
(g29
g2
Ntp1035
Rp1036
(dp1037
g33
I01
sg34
F0.7003684942672935
sg35
g68
sbsg84
g0
(g29
g2
Ntp1038
Rp1039
(dp1040
g33
I01
sg34
F-1.1010703707488723
sg35
g84
sbsg92
g0
(g29
g2
Ntp1041
Rp1042
(dp1043
g33
I01
sg34
F-1.2461606987987541
sg35
g92
sbsg108
g0
(g29
g2
Ntp1044
Rp1045
(dp1046
g33
I01
sg34
F1.9728265542182757
sg35
g108
sbsg112
g0
(g29
g2
Ntp1047
Rp1048
(dp1049
g33
I01
sg34
F-0.9672573642558968
sg35
g112
sbsg120
g0
(g29
g2
Ntp1050
Rp1051
(dp1052
g33
I01
sg34
F0.8093637781764357
sg35
g120
sbsg294
g0
(g29
g2
Ntp1053
Rp1054
(dp1055
g33
I00
sg34
F-1.2868295744659615
sg35
g294
sbsg140
g0
(g29
g2
Ntp1056
Rp1057
(dp1058
g33
I01
sg34
F-1.0291890076667845
sg35
g140
sbsg152
g0
(g29
g2
Ntp1059
Rp1060
(dp1061
g33
I01
sg34
F0.7579971115226758
sg35
g152
sbsg156
g0
(g29
g2
Ntp1062
Rp1063
(dp1064
g33
I01
sg34
F0.09892139795647004
sg35
g156
sbsg124
g0
(g29
g2
Ntp1065
Rp1066
(dp1067
g33
I01
sg34
F-2.688462913772304
sg35
g124
sbsg168
g0
(g29
g2
Ntp1068
Rp1069
(dp1070
g33
I01
sg34
F1.2972228548581826
sg35
g168
sbsg172
g0
(g29
g2
Ntp1071
Rp1072
(dp1073
g33
I01
sg34
F0.746520813608216
sg35
g172
sbsg180
g0
(g29
g2
Ntp1074
Rp1075
(dp1076
g33
I01
sg34
F-2.0193724892044655
sg35
g180
sbsg184
g0
(g29
g2
Ntp1077
Rp1078
(dp1079
g33
I01
sg34
F-0.5831392251957563
sg35
g184
sbsg192
g0
(g29
g2
Ntp1080
Rp1081
(dp1082
g33
I01
sg34
F-0.22459028623928795
sg35
g192
sbsg196
g0
(g29
g2
Ntp1083
Rp1084
(dp1085
g33
I01
sg34
F2.007129963605574
sg35
g196
sbssg208
(dp1086
I0
g0
(g210
g2
Ntp1087
Rp1088
(dp1089
g214
g215
sg216
F0.038251037725708356
sg217
F1.0
sg35
I0
sg218
g219
sbsI21
g0
(g210
g2
Ntp1090
Rp1091
(dp1092
g214
g215
sg216
F0.6473057186308622
sg217
F1.0
sg35
I21
sg218
g219
sbsI23
g0
(g210
g2
Ntp1093
Rp1094
(dp1095
g214
g215
sg216
F-0.8720543511427559
sg217
F1.0
sg35
I23
sg218
g219
sbssg35
I101
sg223
F18.6
sbag0
(g22
g2
Ntp1096
Rp1097
(dp1098
g26
(dp1099
g533
g0
(g29
g2
Ntp1100
Rp1101
(dp1102
g33
I01
sg34
F2.3369693707296872
sg35
g533
sbsg28
g0
(g29
g2
Ntp1103
Rp1104
(dp1105
g33
I01
sg34
F-1.8028603174067552
sg35
g28
sbsg40
g0
(g29
g2
Ntp1106
Rp1107
(dp1108
g33
I01
sg34
F2.2509439319376776
sg35
g40
sbsg44
g0
(g29
g2
Ntp1109
Rp1110
(dp1111
g33
I01
sg34
F-1.0549963828006517
sg35
g44
sbsg48
g0
(g29
g2
Ntp1112
Rp1113
(dp1114
g33
I01
sg34
F-0.18965291708646825
sg35
g48
sbsg100
g0
(g29
g2
Ntp1115
Rp1116
(dp1117
g33
I01
sg34
F2.8865008698972323
sg35
g100
sbsg56
g0
(g29
g2
Ntp1118
Rp1119
(dp1120
g33
I01
sg34
F-1.2094635524290773
sg35
g56
sbsg68
g0
(g29
g2
Ntp1121
Rp1122
(dp1123
g33
I01
sg34
F0.7003684942672935
sg35
g68
sbsg84
g0
(g29
g2
Ntp1124
Rp1125
(dp1126
g33
I01
sg34
F-1.1010703707488723
sg35
g84
sbsg92
g0
(g29
g2
Ntp1127
Rp1128
(dp1129
g33
I01
sg34
F-1.2461606987987541
sg35
g92
sbsg108
g0
(g29
g2
Ntp1130
Rp1131
(dp1132
g33
I01
sg34
F1.9728265542182757
sg35
g108
sbsg112
g0
(g29
g2
Ntp1133
Rp1134
(dp1135
g33
I01
sg34
F-0.9672573642558968
sg35
g112
sbsg120
g0
(g29
g2
Ntp1136
Rp1137
(dp1138
g33
I01
sg34
F0.8093637781764357
sg35
g120
sbsg294
g0
(g29
g2
Ntp1139
Rp1140
(dp1141
g33
I00
sg34
F-1.2868295744659615
sg35
g294
sbsg140
g0
(g29
g2
Ntp1142
Rp1143
(dp1144
g33
I01
sg34
F-1.0291890076667845
sg35
g140
sbsg152
g0
(g29
g2
Ntp1145
Rp1146
(dp1147
g33
I01
sg34
F0.7579971115226758
sg35
g152
sbsg156
g0
(g29
g2
Ntp1148
Rp1149
(dp1150
g33
I01
sg34
F0.09892139795647004
sg35
g156
sbsg124
g0
(g29
g2
Ntp1151
Rp1152
(dp1153
g33
I01
sg34
F-2.688462913772304
sg35
g124
sbsg168
g0
(g29
g2
Ntp1154
Rp1155
(dp1156
g33
I01
sg34
F1.2972228548581826
sg35
g168
sbsg172
g0
(g29
g2
Ntp1157
Rp1158
(dp1159
g33
I01
sg34
F0.746520813608216
sg35
g172
sbsg180
g0
(g29
g2
Ntp1160
Rp1161
(dp1162
g33
I01
sg34
F-2.0193724892044655
sg35
g180
sbsg184
g0
(g29
g2
Ntp1163
Rp1164
(dp1165
g33
I01
sg34
F-0.5831392251957563
sg35
g184
sbsg192
g0
(g29
g2
Ntp1166
Rp1167
(dp1168
g33
I01
sg34
F-0.22459028623928795
sg35
g192
sbsg196
g0
(g29
g2
Ntp1169
Rp1170
(dp1171
g33
I01
sg34
F2.007129963605574
sg35
g196
sbssg208
(dp1172
I0
g0
(g210
g2
Ntp1173
Rp1174
(dp1175
g214
g215
sg216
F0.038251037725708356
sg217
F1.0
sg35
I0
sg218
g219
sbsI21
g0
(g210
g2
Ntp1176
Rp1177
(dp1178
g214
g215
sg216
F0.6473057186308622
sg217
F1.0
sg35
I21
sg218
g219
sbsI23
g0
(g210
g2
Ntp1179
Rp1180
(dp1181
g214
g215
sg216
F-0.8720543511427559
sg217
F1.0
sg35
I23
sg218
g219
sbssg35
I101
sg223
F18.8
sbasS'generation_statistics'
p1182
(lp1183
(dp1184
I1
(dp1185
I1
I-1000
sI2
I-1000
sI3
I-1000
sI4
I-1000
sI6
I-1000
sI7
F17.1
sI8
F-177.9
sI9
I-1000
sI10
I-1000
sI14
I-1000
sI15
I-1000
sI17
I-1000
sI19
I-1000
sI20
I-1000
ssI2
(dp1186
I11
I-1000
sI12
I-1000
sI5
I-1000
ssI3
(dp1187
I16
I-1000
sI18
I-1000
sI13
I-1000
ssa(dp1188
I1
(dp1189
I8
I-1000
sI11
I-1000
sI12
I-1000
sI16
I-1000
sI18
I-1000
sI21
I-1000
sI22
I-1000
sI24
I-1000
sI28
I-1000
sI31
I-1000
ssI2
(dp1190
I29
I-1000
sI23
F18.4
ssI3
(dp1191
I32
I-1000
sI33
I-1000
sI34
I-1000
sI7
F17.2
sI25
F-139.2
sI26
I-1000
sI27
I-1000
sI30
F-140.7
ssa(dp1192
I1
(dp1193
I8
F-171.3
sI36
F-110.7
ssI2
(dp1194
I35
I-1000
sI11
I-1000
sI44
F15.5
sI46
I-1000
sI47
I-1000
sI23
I-1000
sI29
I-1000
ssI3
(dp1195
I37
I-1000
sI38
I-1000
sI7
I-1000
sI40
F-137.3
sI41
F-139.4
sI42
F17.4
sI43
I-1000
sI45
I-1000
sI25
F-144.2
sI39
I-1000
ssa(dp1196
I1
(dp1197
I36
F-111.3
sI8
F-173.2
sI48
F-111.6
sI49
I-1000
sI50
I-1000
sI51
I-1000
sI52
I-1000
ssI2
(dp1198
I35
I-1000
sI44
F15.5
sI53
F16.5
sI54
F-25.1
sI55
I-1000
ssI3
(dp1199
I40
F-139.1
sI42
I-1000
sI56
I-1000
sI57
I-1000
sI58
I-1000
sI59
I-1000
sI60
I-1000
sI61
I-1000
ssa(dp1200
I1
(dp1201
I65
I-1000
sI66
I-1000
sI67
F-110.9
sI36
F-110.3
sI48
F-110.4
sI68
I-1000
ssI2
(dp1202
I69
F18.2
sI70
I-1000
sI71
F-24.2
sI72
F-25.1
sI73
F16.8
sI74
F16.4
sI44
F16.8
sI53
F16.9
ssI3
(dp1203
I64
I-1000
sI40
F-140.1
sI42
I-1000
sI62
I-1000
sI63
F-140.6
ssa(dp1204
I1
(dp1205
I48
F-110.0
sI36
F-112.2
sI77
I-1000
sI78
F-96.2
sI79
F-109.9
sI80
F-93.1
ssI2
(dp1206
I69
F18.2
sI81
F18.7
sI82
I-1000
sI83
F16.9
sI84
F18.3
sI53
F16.6
sI86
I-1000
sI87
F17.7
sI88
F17.8
sI85
I-1000
ssI3
(dp1207
I40
F-139.7
sI75
I-1000
sI76
I-1000
sI63
F-139.0
ssa(dp1208
I1
(dp1209
I96
F-97.1
sI78
F-99.0
sI80
F-93.9
sI92
F-25.9
sI93
I-1000
sI94
I-1000
sI95
F-28.8
ssI2
(dp1210
I97
I-1000
sI98
F17.2
sI99
F17.5
sI100
F15.8
sI101
F18.1
sI102
F17.7
sI103
F16.6
sI81
F17.5
sI84
F17.6
ssI3
(dp1211
I40
F-139.8
sI89
F17.2
sI90
I-1000
sI91
I-1000
sI63
F-137.8
ssa(dp1212
I1
(dp1213
I104
F-26.2
sI105
I-1000
sI106
I-1000
sI107
F-25.0
sI92
F-26.5
sI95
F-27.8
ssI2
(dp1214
I101
F18.6
sI102
F18.3
sI112
F18.0
sI113
I-1000
sI114
F17.9
sI115
F17.7
sI116
F17.5
sI117
F16.6
ssI3
(dp1215
I108
I-1000
sI109
I-1000
sI110
I-1000
sI111
F-26.1
sI89
F16.8
sI63
F-139.1
ssa(dp1216
I1
(dp1217
I104
F-26.1
sI107
F-23.4
sI118
I-1000
sI119
F-110.6
sI120
I-1000
sI121
I-1000
sI122
I-1000
ssI2
(dp1218
I128
I-1000
sI129
F18.2
sI130
I-1000
sI131
F18.5
sI132
F-130.2
sI101
F18.8
sI102
F18.2
sI126
I-1000
sI127
I-1000
ssI3
(dp1219
I89
F16.8
sI123
F17.0
sI124
F-83.5
sI125
F15.9
sI111
F-25.3
ssasbag0
(cneat.reporting
StdOutReporter
p1220
g2
Ntp1221
Rp1222
(dp1223
g6
I9
sS'generation_times'
p1224
(lp1225
F24622.94637489319
aF24339.923590898514
aF23514.988677978516
aF24477.18066096306
aF19168.850109815598
aF22225.334769964218
aF23280.680834054947
aF21675.59325504303
aF22541.833704948425
asS'generation_start_time'
p1226
F1564739597.204378
sS'num_extinctions'
p1227
I0
sS'show_species_detail'
p1228
I01
sbasbsS'reproduction'
p1229
g0
(cneat.reproduction
DefaultReproduction
p1230
g2
Ntp1231
Rp1232
(dp1233
S'reproduction_config'
p1234
g0
(cneat.config
DefaultClassConfig
p1235
g2
Ntp1236
Rp1237
(dp1238
S'survival_threshold'
p1239
F0.2
sS'elitism'
p1240
I2
sS'_params'
p1241
(lp1242
g0
(cneat.config
ConfigParameter
p1243
g2
Ntp1244
Rp1245
(dp1246
S'default'
p1247
I0
sS'value_type'
p1248
c__builtin__
int
p1249
sS'name'
p1250
S'elitism'
p1251
sbag0
(g1243
g2
Ntp1252
Rp1253
(dp1254
g1247
F0.2
sg1248
c__builtin__
float
p1255
sg1250
S'survival_threshold'
p1256
sbag0
(g1243
g2
Ntp1257
Rp1258
(dp1259
g1247
I2
sg1248
g1249
sg1250
S'min_species_size'
p1260
sbasS'min_species_size'
p1261
I2
sbsS'stagnation'
p1262
g0
(cneat.stagnation
DefaultStagnation
p1263
g2
Ntp1264
Rp1265
(dp1266
S'species_fitness_func'
p1267
g8
sS'stagnation_config'
p1268
g0
(g1235
g2
Ntp1269
Rp1270
(dp1271
g1267
S'max'
p1272
sS'species_elitism'
p1273
I0
sg1241
(lp1274
g0
(g1243
g2
Ntp1275
Rp1276
(dp1277
g1247
S'mean'
p1278
sg1248
c__builtin__
str
p1279
sg1250
S'species_fitness_func'
p1280
sbag0
(g1243
g2
Ntp1281
Rp1282
(dp1283
g1247
I15
sg1248
g1249
sg1250
S'max_stagnation'
p1284
sbag0
(g1243
g2
Ntp1285
Rp1286
(dp1287
g1247
I0
sg1248
g1249
sg1250
S'species_elitism'
p1288
sbasS'max_stagnation'
p1289
I20
sbsg10
g13
sbsS'ancestors'
p1290
(dp1291
I1
(tsI2
(tsI3
(tsI4
(tsI5
(tsI6
(tsI7
(tsI8
(tsI9
(tsI10
(tsI11
(tsI12
(tsI13
(tsI14
(tsI15
(tsI16
(tsI17
(tsI18
(tsI19
(tsI20
(tsI21
(I8
I1
tp1292
sI22
(I1
I8
tp1293
sI23
(I7
I8
tp1294
sI24
(I8
I8
tp1295
sI25
(I7
I7
tp1296
sI26
(I7
I8
tp1297
sI27
(I7
I1
tp1298
sI28
(I1
I8
tp1299
sI29
(I7
I8
tp1300
sI30
(I1
I7
tp1301
sI31
(I8
I1
tp1302
sI32
(I7
I7
tp1303
sI33
(I7
I8
tp1304
sI34
(I7
I7
tp1305
sI35
(I11
I11
tp1306
sI36
(I8
I8
tp1307
sI37
(I8
I11
tp1308
sI38
(I7
I25
tp1309
sI39
(I7
I7
tp1310
sI40
(I7
I25
tp1311
sI41
(I25
I7
tp1312
sI42
(I7
I7
tp1313
sI43
(I25
I7
tp1314
sI44
(I29
I23
tp1315
sI45
(I29
I29
tp1316
sI46
(I29
I23
tp1317
sI47
(I29
I23
tp1318
sI48
(I36
I36
tp1319
sI49
(I36
I8
tp1320
sI50
(I36
I36
tp1321
sI51
(I8
I36
tp1322
sI52
(I36
I36
tp1323
sI53
(I44
I44
tp1324
sI54
(I44
I35
tp1325
sI55
(I35
I35
tp1326
sI56
(I40
I40
tp1327
sI57
(I42
I42
tp1328
sI58
(I42
I42
tp1329
sI59
(I42
I42
tp1330
sI60
(I42
I42
tp1331
sI61
(I40
I40
tp1332
sI62
(I42
I40
tp1333
sI63
(I42
I42
tp1334
sI64
(I40
I40
tp1335
sI65
(I48
I36
tp1336
sI66
(I48
I36
tp1337
sI67
(I36
I48
tp1338
sI68
(I48
I36
tp1339
sI69
(I44
I44
tp1340
sI70
(I44
I53
tp1341
sI71
(I44
I53
tp1342
sI72
(I44
I53
tp1343
sI73
(I53
I44
tp1344
sI74
(I44
I44
tp1345
sI75
(I63
I63
tp1346
sI76
(I40
I40
tp1347
sI77
(I36
I36
tp1348
sI78
(I48
I48
tp1349
sI79
(I48
I48
tp1350
sI80
(I36
I36
tp1351
sI81
(I53
I69
tp1352
sI82
(I69
I53
tp1353
sI83
(I53
I69
tp1354
sI84
(I53
I53
tp1355
sI85
(I69
I69
tp1356
sI86
(I53
I53
tp1357
sI87
(I69
I69
tp1358
sI88
(I69
I53
tp1359
sI89
(I40
I40
tp1360
sI90
(I40
I63
tp1361
sI91
(I63
I63
tp1362
sI92
(I78
I78
tp1363
sI93
(I80
I80
tp1364
sI94
(I80
I78
tp1365
sI95
(I80
I78
tp1366
sI96
(I78
I78
tp1367
sI97
(I81
I81
tp1368
sI98
(I81
I84
tp1369
sI99
(I84
I81
tp1370
sI100
(I84
I84
tp1371
sI101
(I84
I81
tp1372
sI102
(I81
I81
tp1373
sI103
(I84
I81
tp1374
sI104
(I95
I92
tp1375
sI105
(I95
I92
tp1376
sI106
(I95
I95
tp1377
sI107
(I95
I92
tp1378
sI108
(I63
I63
tp1379
sI109
(I89
I63
tp1380
sI110
(I89
I63
tp1381
sI111
(I89
I89
tp1382
sI112
(I101
I102
tp1383
sI113
(I102
I102
tp1384
sI114
(I101
I101
tp1385
sI115
(I102
I102
tp1386
sI116
(I101
I102
tp1387
sI117
(I102
I101
tp1388
sI118
(I107
I104
tp1389
sI119
(I107
I107
tp1390
sI120
(I107
I104
tp1391
sI121
(I104
I107
tp1392
sI122
(I104
I104
tp1393
sI123
(I89
I89
tp1394
sI124
(I89
I89
tp1395
sI125
(I89
I89
tp1396
sI126
(I101
I101
tp1397
sI127
(I101
I101
tp1398
sI128
(I102
I102
tp1399
sI129
(I102
I102
tp1400
sI130
(I101
I101
tp1401
sI131
(I102
I101
tp1402
sI132
(I102
I102
tp1403
sI133
(I107
I107
tp1404
sI134
(I107
I107
tp1405
sI135
(I107
I107
tp1406
sI136
(I104
I107
tp1407
sI137
(I89
I123
tp1408
sI138
(I89
I89
tp1409
sI139
(I89
I89
tp1410
sI140
(I123
I89
tp1411
sI141
(I89
I123
tp1412
sI142
(I89
I123
tp1413
sI143
(I101
I131
tp1414
sI144
(I131
I101
tp1415
sI145
(I101
I101
tp1416
sI146
(I131
I131
tp1417
sI147
(I131
I101
tp1418
ssS'genome_indexer'
p1419
citertools
count
p1420
(I148
tp1421
Rp1422
sg10
g13
sbsS'best_genome'
p1423
g0
(g22
g2
Ntp1424
Rp1425
(dp1426
g26
(dp1427
g533
g0
(g29
g2
Ntp1428
Rp1429
(dp1430
g33
I01
sg34
F2.3369693707296872
sg35
g533
sbsg28
g0
(g29
g2
Ntp1431
Rp1432
(dp1433
g33
I01
sg34
F-1.8028603174067552
sg35
g28
sbsg40
g0
(g29
g2
Ntp1434
Rp1435
(dp1436
g33
I01
sg34
F2.2509439319376776
sg35
g40
sbsg44
g0
(g29
g2
Ntp1437
Rp1438
(dp1439
g33
I01
sg34
F-1.0549963828006517
sg35
g44
sbsg48
g0
(g29
g2
Ntp1440
Rp1441
(dp1442
g33
I01
sg34
F-0.18965291708646825
sg35
g48
sbsg100
g0
(g29
g2
Ntp1443
Rp1444
(dp1445
g33
I01
sg34
F2.8865008698972323
sg35
g100
sbsg56
g0
(g29
g2
Ntp1446
Rp1447
(dp1448
g33
I01
sg34
F-1.2094635524290773
sg35
g56
sbsg68
g0
(g29
g2
Ntp1449
Rp1450
(dp1451
g33
I01
sg34
F0.7003684942672935
sg35
g68
sbsg84
g0
(g29
g2
Ntp1452
Rp1453
(dp1454
g33
I01
sg34
F-1.1010703707488723
sg35
g84
sbsg92
g0
(g29
g2
Ntp1455
Rp1456
(dp1457
g33
I01
sg34
F-1.2461606987987541
sg35
g92
sbsg108
g0
(g29
g2
Ntp1458
Rp1459
(dp1460
g33
I01
sg34
F1.9728265542182757
sg35
g108
sbsg112
g0
(g29
g2
Ntp1461
Rp1462
(dp1463
g33
I01
sg34
F-0.9672573642558968
sg35
g112
sbsg120
g0
(g29
g2
Ntp1464
Rp1465
(dp1466
g33
I01
sg34
F0.8093637781764357
sg35
g120
sbsg294
g0
(g29
g2
Ntp1467
Rp1468
(dp1469
g33
I00
sg34
F-1.2868295744659615
sg35
g294
sbsg140
g0
(g29
g2
Ntp1470
Rp1471
(dp1472
g33
I01
sg34
F-1.0291890076667845
sg35
g140
sbsg152
g0
(g29
g2
Ntp1473
Rp1474
(dp1475
g33
I01
sg34
F0.7579971115226758
sg35
g152
sbsg156
g0
(g29
g2
Ntp1476
Rp1477
(dp1478
g33
I01
sg34
F0.09892139795647004
sg35
g156
sbsg124
g0
(g29
g2
Ntp1479
Rp1480
(dp1481
g33
I01
sg34
F-2.688462913772304
sg35
g124
sbsg168
g0
(g29
g2
Ntp1482
Rp1483
(dp1484
g33
I01
sg34
F1.2972228548581826
sg35
g168
sbsg172
g0
(g29
g2
Ntp1485
Rp1486
(dp1487
g33
I01
sg34
F0.746520813608216
sg35
g172
sbsg180
g0
(g29
g2
Ntp1488
Rp1489
(dp1490
g33
I01
sg34
F-2.0193724892044655
sg35
g180
sbsg184
g0
(g29
g2
Ntp1491
Rp1492
(dp1493
g33
I01
sg34
F-0.5831392251957563
sg35
g184
sbsg192
g0
(g29
g2
Ntp1494
Rp1495
(dp1496
g33
I01
sg34
F-0.22459028623928795
sg35
g192
sbsg196
g0
(g29
g2
Ntp1497
Rp1498
(dp1499
g33
I01
sg34
F2.007129963605574
sg35
g196
sbssg208
(dp1500
I0
g0
(g210
g2
Ntp1501
Rp1502
(dp1503
g214
g215
sg216
F0.038251037725708356
sg217
F1.0
sg35
I0
sg218
g219
sbsI21
g0
(g210
g2
Ntp1504
Rp1505
(dp1506
g214
g215
sg216
F0.6473057186308622
sg217
F1.0
sg35
I21
sg218
g219
sbsI23
g0
(g210
g2
Ntp1507
Rp1508
(dp1509
g214
g215
sg216
F-0.8720543511427559
sg217
F1.0
sg35
I23
sg218
g219
sbssg35
I101
sg223
I0
sbsS'config'
p1510
g0
(cneat.config
Config
p1511
g2
Ntp1512
Rp1513
(dp1514
g1234
g1237
sg7
S'max'
p1515
sg1268
g1270
sS'no_fitness_termination'
p1516
I00
sS'stagnation_type'
p1517
g1263
sS'fitness_threshold'
p1518
F60.0
sS'reproduction_type'
p1519
g1230
sS'species_set_config'
p1520
g0
(g1235
g2
Ntp1521
Rp1522
(dp1523
g1241
(lp1524
g0
(g1243
g2
Ntp1525
Rp1526
(dp1527
g1247
Nsg1248
g1255
sg1250
S'compatibility_threshold'
p1528
sbasS'compatibility_threshold'
p1529
F3.0
sbsS'genome_config'
p1530
g0
(cneat.genome
DefaultGenomeConfig
p1531
g2
Ntp1532
Rp1533
(dp1534
S'input_keys'
p1535
(lp1536
I-1
aI-2
aI-3
aI-4
aI-5
aI-6
aI-7
aI-8
aI-9
aI-10
aI-11
aI-12
aI-13
aI-14
aI-15
aI-16
aI-17
aI-18
aI-19
aI-20
aI-21
aI-22
aI-23
aI-24
aI-25
aI-26
aI-27
aI-28
aI-29
aI-30
aI-31
aI-32
aI-33
aI-34
aI-35
aI-36
aI-37
aI-38
aI-39
aI-40
aI-41
aI-42
aI-43
asS'single_structural_mutation'
p1537
I00
sS'aggregation_default'
p1538
g219
sS'output_keys'
p1539
(lp1540
I0
asS'bias_init_mean'
p1541
F0.0
sS'weight_max_value'
p1542
F30.0
sS'weight_replace_rate'
p1543
F0.1
sS'aggregation_mutate_rate'
p1544
F0.0
sS'initial_connection'
p1545
S'partial_direct'
p1546
sS'connection_fraction'
p1547
F0.5
sS'node_indexer'
p1548
g1420
(I46
tp1549
Rp1550
sS'weight_mutate_rate'
p1551
F0.8
sS'response_mutate_rate'
p1552
F0.0
sS'node_add_prob'
p1553
F0.2
sS'weight_mutate_power'
p1554
F0.5
sS'bias_mutate_rate'
p1555
F0.7
sS'structural_mutation_surer'
p1556
S'default'
p1557
sS'num_inputs'
p1558
I43
sS'conn_add_prob'
p1559
F0.2
sS'bias_init_stdev'
p1560
F1.0
sS'bias_min_value'
p1561
F-30.0
sS'aggregation_function_defs'
p1562
g0
(cneat.aggregations
AggregationFunctionSet
p1563
g2
Ntp1564
Rp1565
(dp1566
S'functions'
p1567
(dp1568
S'product'
p1569
cneat.aggregations
product_aggregation
p1570
sS'min'
p1571
cneat.aggregations
min_aggregation
p1572
sS'maxabs'
p1573
cneat.aggregations
maxabs_aggregation
p1574
sS'max'
p1575
cneat.aggregations
max_aggregation
p1576
sS'sum'
p1577
cneat.aggregations
sum_aggregation
p1578
sS'median'
p1579
cneat.aggregations
median_aggregation
p1580
sg1278
cneat.aggregations
mean_aggregation
p1581
ssbsS'bias_replace_rate'
p1582
F0.1
sS'response_init_type'
p1583
S'gaussian'
p1584
sS'enabled_rate_to_true_add'
p1585
F0.0
sS'weight_init_type'
p1586
g1584
sS'activation_options'
p1587
(lp1588
S'sigmoid'
p1589
asS'num_hidden'
p1590
I1
sS'connection_gene_type'
p1591
g29
sS'aggregation_defs'
p1592
g1565
sS'response_init_stdev'
p1593
F0.0
sS'response_replace_rate'
p1594
F0.0
sS'weight_min_value'
p1595
F-30.0
sS'node_gene_type'
p1596
g210
sS'feed_forward'
p1597
I01
sS'bias_init_type'
p1598
g1584
sS'aggregation_options'
p1599
(lp1600
S'sum'
p1601
asS'num_outputs'
p1602
I1
sS'activation_defs'
p1603
g0
(cneat.activations
ActivationFunctionSet
p1604
g2
Ntp1605
Rp1606
(dp1607
g1567
(dp1608
S'cube'
p1609
cneat.activations
cube_activation
p1610
sS'log'
p1611
cneat.activations
log_activation
p1612
sS'sigmoid'
p1613
cneat.activations
sigmoid_activation
p1614
sS'lelu'
p1615
cneat.activations
lelu_activation
p1616
sS'inv'
p1617
cneat.activations
inv_activation
p1618
sS'tanh'
p1619
cneat.activations
tanh_activation
p1620
sS'relu'
p1621
cneat.activations
relu_activation
p1622
sS'sin'
p1623
cneat.activations
sin_activation
p1624
sS'softplus'
p1625
cneat.activations
softplus_activation
p1626
sS'abs'
p1627
cneat.activations
abs_activation
p1628
sS'square'
p1629
cneat.activations
square_activation
p1630
sS'gauss'
p1631
cneat.activations
gauss_activation
p1632
sS'exp'
p1633
cneat.activations
exp_activation
p1634
sS'selu'
p1635
cneat.activations
selu_activation
p1636
sS'hat'
p1637
cneat.activations
hat_activation
p1638
sS'clamped'
p1639
cneat.activations
clamped_activation
p1640
sS'identity'
p1641
cneat.activations
identity_activation
p1642
sS'elu'
p1643
cneat.activations
elu_activation
p1644
ssbsS'activation_mutate_rate'
p1645
F0.0
sg1241
(lp1646
g0
(g1243
g2
Ntp1647
Rp1648
(dp1649
g1247
Nsg1248
g1249
sg1250
S'num_inputs'
p1650
sbag0
(g1243
g2
Ntp1651
Rp1652
(dp1653
g1247
Nsg1248
g1249
sg1250
S'num_outputs'
p1654
sbag0
(g1243
g2
Ntp1655
Rp1656
(dp1657
g1247
Nsg1248
g1249
sg1250
S'num_hidden'
p1658
sbag0
(g1243
g2
Ntp1659
Rp1660
(dp1661
g1247
Nsg1248
c__builtin__
bool
p1662
sg1250
S'feed_forward'
p1663
sbag0
(g1243
g2
Ntp1664
Rp1665
(dp1666
g1247
Nsg1248
g1255
sg1250
S'compatibility_disjoint_coefficient'
p1667
sbag0
(g1243
g2
Ntp1668
Rp1669
(dp1670
g1247
Nsg1248
g1255
sg1250
S'compatibility_weight_coefficient'
p1671
sbag0
(g1243
g2
Ntp1672
Rp1673
(dp1674
g1247
Nsg1248
g1255
sg1250
S'conn_add_prob'
p1675
sbag0
(g1243
g2
Ntp1676
Rp1677
(dp1678
g1247
Nsg1248
g1255
sg1250
S'conn_delete_prob'
p1679
sbag0
(g1243
g2
Ntp1680
Rp1681
(dp1682
g1247
Nsg1248
g1255
sg1250
S'node_add_prob'
p1683
sbag0
(g1243
g2
Ntp1684
Rp1685
(dp1686
g1247
Nsg1248
g1255
sg1250
S'node_delete_prob'
p1687
sbag0
(g1243
g2
Ntp1688
Rp1689
(dp1690
g1247
S'false'
p1691
sg1248
g1662
sg1250
S'single_structural_mutation'
p1692
sbag0
(g1243
g2
Ntp1693
Rp1694
(dp1695
g1247
g1557
sg1248
g1279
sg1250
S'structural_mutation_surer'
p1696
sbag0
(g1243
g2
Ntp1697
Rp1698
(dp1699
g1247
S'unconnected'
p1700
sg1248
g1279
sg1250
S'initial_connection'
p1701
sbag0
(g1243
g2
Ntp1702
Rp1703
(dp1704
g1247
Nsg1248
g1255
sg1250
S'bias_replace_rate'
p1705
sbag0
(g1243
g2
Ntp1706
Rp1707
(dp1708
g1247
Nsg1248
g1255
sg1250
S'bias_max_value'
p1709
sbag0
(g1243
g2
Ntp1710
Rp1711
(dp1712
g1247
Nsg1248
g1255
sg1250
S'bias_mutate_rate'
p1713
sbag0
(g1243
g2
Ntp1714
Rp1715
(dp1716
g1247
Nsg1248
g1255
sg1250
S'bias_init_mean'
p1717
sbag0
(g1243
g2
Ntp1718
Rp1719
(dp1720
g1247
Nsg1248
g1255
sg1250
S'bias_mutate_power'
p1721
sbag0
(g1243
g2
Ntp1722
Rp1723
(dp1724
g1247
Nsg1248
g1255
sg1250
S'bias_min_value'
p1725
sbag0
(g1243
g2
Ntp1726
Rp1727
(dp1728
g1247
g1584
sg1248
g1279
sg1250
S'bias_init_type'
p1729
sbag0
(g1243
g2
Ntp1730
Rp1731
(dp1732
g1247
Nsg1248
g1255
sg1250
S'bias_init_stdev'
p1733
sbag0
(g1243
g2
Ntp1734
Rp1735
(dp1736
g1247
Nsg1248
g1255
sg1250
S'response_replace_rate'
p1737
sbag0
(g1243
g2
Ntp1738
Rp1739
(dp1740
g1247
Nsg1248
g1255
sg1250
S'response_max_value'
p1741
sbag0
(g1243
g2
Ntp1742
Rp1743
(dp1744
g1247
Nsg1248
g1255
sg1250
S'response_mutate_rate'
p1745
sbag0
(g1243
g2
Ntp1746
Rp1747
(dp1748
g1247
Nsg1248
g1255
sg1250
S'response_init_mean'
p1749
sbag0
(g1243
g2
Ntp1750
Rp1751
(dp1752
g1247
Nsg1248
g1255
sg1250
S'response_mutate_power'
p1753
sbag0
(g1243
g2
Ntp1754
Rp1755
(dp1756
g1247
Nsg1248
g1255
sg1250
S'response_min_value'
p1757
sbag0
(g1243
g2
Ntp1758
Rp1759
(dp1760
g1247
g1584
sg1248
g1279
sg1250
S'response_init_type'
p1761
sbag0
(g1243
g2
Ntp1762
Rp1763
(dp1764
g1247
Nsg1248
g1255
sg1250
S'response_init_stdev'
p1765
sbag0
(g1243
g2
Ntp1766
Rp1767
(dp1768
g1247
S'random'
p1769
sg1248
g1279
sg1250
S'activation_default'
p1770
sbag0
(g1243
g2
Ntp1771
Rp1772
(dp1773
g1247
Nsg1248
g1255
sg1250
S'activation_mutate_rate'
p1774
sbag0
(g1243
g2
Ntp1775
Rp1776
(dp1777
g1247
g1577
sg1248
c__builtin__
list
p1778
sg1250
S'activation_options'
p1779
sbag0
(g1243
g2
Ntp1780
Rp1781
(dp1782
g1247
g1769
sg1248
g1279
sg1250
S'aggregation_default'
p1783
sbag0
(g1243
g2
Ntp1784
Rp1785
(dp1786
g1247
Nsg1248
g1255
sg1250
S'aggregation_mutate_rate'
p1787
sbag0
(g1243
g2
Ntp1788
Rp1789
(dp1790
g1247
g1577
sg1248
g1778
sg1250
S'aggregation_options'
p1791
sbag0
(g1243
g2
Ntp1792
Rp1793
(dp1794
g1247
Nsg1248
g1255
sg1250
S'weight_replace_rate'
p1795
sbag0
(g1243
g2
Ntp1796
Rp1797
(dp1798
g1247
Nsg1248
g1255
sg1250
S'weight_max_value'
p1799
sbag0
(g1243
g2
Ntp1800
Rp1801
(dp1802
g1247
Nsg1248
g1255
sg1250
S'weight_mutate_rate'
p1803
sbag0
(g1243
g2
Ntp1804
Rp1805
(dp1806
g1247
Nsg1248
g1255
sg1250
S'weight_init_mean'
p1807
sbag0
(g1243
g2
Ntp1808
Rp1809
(dp1810
g1247
Nsg1248
g1255
sg1250
S'weight_mutate_power'
p1811
sbag0
(g1243
g2
Ntp1812
Rp1813
(dp1814
g1247
Nsg1248
g1255
sg1250
S'weight_min_value'
p1815
sbag0
(g1243
g2
Ntp1816
Rp1817
(dp1818
g1247
g1584
sg1248
g1279
sg1250
S'weight_init_type'
p1819
sbag0
(g1243
g2
Ntp1820
Rp1821
(dp1822
g1247
Nsg1248
g1255
sg1250
S'weight_init_stdev'
p1823
sbag0
(g1243
g2
Ntp1824
Rp1825
(dp1826
g1247
Nsg1248
g1279
sg1250
S'enabled_default'
p1827
sbag0
(g1243
g2
Ntp1828
Rp1829
(dp1830
g1247
F0.0
sg1248
g1255
sg1250
S'enabled_rate_to_false_add'
p1831
sbag0
(g1243
g2
Ntp1832
Rp1833
(dp1834
g1247
Nsg1248
g1255
sg1250
S'enabled_mutate_rate'
p1835
sbag0
(g1243
g2
Ntp1836
Rp1837
(dp1838
g1247
F0.0
sg1248
g1255
sg1250
S'enabled_rate_to_true_add'
p1839
sbasS'activation_default'
p1840
g215
sS'enabled_rate_to_false_add'
p1841
F0.0
sS'enabled_mutate_rate'
p1842
F0.01
sS'weight_init_mean'
p1843
F0.0
sS'node_delete_prob'
p1844
F0.2
sS'conn_delete_prob'
p1845
F0.2
sS'enabled_default'
p1846
S'True'
p1847
sS'weight_init_stdev'
p1848
F1.0
sS'response_min_value'
p1849
F-30.0
sS'compatibility_weight_coefficient'
p1850
F0.6
sS'response_mutate_power'
p1851
F0.0
sS'bias_max_value'
p1852
F30.0
sS'bias_mutate_power'
p1853
F0.5
sS'response_init_mean'
p1854
F1.0
sS'response_max_value'
p1855
F30.0
sS'compatibility_disjoint_coefficient'
p1856
F1.0
sbsS'reset_on_extinction'
p1857
I00
sS'pop_size'
p1858
I20
sS'genome_type'
p1859
g22
sS'species_set_type'
p1860
cneat.species
DefaultSpeciesSet
p1861
sbsS'species'
p1862
g0
(g1861
g2
Ntp1863
Rp1864
(dp1865
S'genome_to_species'
p1866
(dp1867
I131
I2
sI133
I1
sI134
I1
sI135
I1
sI104
I1
sI145
I2
sI138
I3
sI107
I1
sI140
I3
sI141
I3
sI142
I3
sI143
I2
sI144
I2
sI136
I1
sI146
I2
sI147
I2
sI139
I3
sI137
I3
sI89
I3
sI123
I3
sI101
I2
ssS'indexer'
p1868
g1420
(I4
tp1869
Rp1870
sg1862
(dp1871
I1
g0
(cneat.species
Species
p1872
g2
Ntp1873
Rp1874
(dp1875
S'adjusted_fitness'
p1876
F0.39821358460934425
sg35
I1
sS'created'
p1877
I0
sS'last_improved'
p1878
I0
sS'fitness_history'
p1879
(lp1880
F17.1
aI-1000
aF-110.7
aF-111.3
aF-110.3
aF-93.1
aF-25.9
aF-25.0
aF-23.4
asS'representative'
p1881
g0
(g22
g2
Ntp1882
Rp1883
(dp1884
g26
(dp1885
(I-3
I8
tp1886
g0
(g29
g2
Ntp1887
Rp1888
(dp1889
g33
I01
sg34
F0.332297103440196
sg35
g1886
sbs(I-38
I0
tp1890
g0
(g29
g2
Ntp1891
Rp1892
(dp1893
g33
I01
sg34
F-2.1090650087180904
sg35
g1890
sbs(I-11
I8
tp1894
g0
(g29
g2
Ntp1895
Rp1896
(dp1897
g33
I01
sg34
F1.1444093246849585
sg35
g1894
sbs(I-12
I0
tp1898
g0
(g29
g2
Ntp1899
Rp1900
(dp1901
g33
I01
sg34
F-1.361373417367687
sg35
g1898
sbs(I-7
I0
tp1902
g0
(g29
g2
Ntp1903
Rp1904
(dp1905
g33
I01
sg34
F0.011221401898078277
sg35
g1902
sbs(I-27
I0
tp1906
g0
(g29
g2
Ntp1907
Rp1908
(dp1909
g33
I01
sg34
F1.525508055146964
sg35
g1906
sbs(I24
I0
tp1910
g0
(g29
g2
Ntp1911
Rp1912
(dp1913
g33
I01
sg34
F0.9094986821638438
sg35
g1910
sbs(I-42
I0
tp1914
g0
(g29
g2
Ntp1915
Rp1916
(dp1917
g33
I01
sg34
F3.0361004544436874
sg35
g1914
sbs(I-37
I0
tp1918
g0
(g29
g2
Ntp1919
Rp1920
(dp1921
g33
I01
sg34
F-0.7757142613550564
sg35
g1918
sbs(I-6
I0
tp1922
g0
(g29
g2
Ntp1923
Rp1924
(dp1925
g33
I01
sg34
F3.726435040988903
sg35
g1922
sbs(I-26
I0
tp1926
g0
(g29
g2
Ntp1927
Rp1928
(dp1929
g33
I01
sg34
F-0.4577334481789905
sg35
g1926
sbs(I-21
I0
tp1930
g0
(g29
g2
Ntp1931
Rp1932
(dp1933
g33
I01
sg34
F0.0128506246344076
sg35
g1930
sbs(I-41
I0
tp1934
g0
(g29
g2
Ntp1935
Rp1936
(dp1937
g33
I01
sg34
F-0.8150864357726932
sg35
g1934
sbs(I-42
I8
tp1938
g0
(g29
g2
Ntp1939
Rp1940
(dp1941
g33
I01
sg34
F1.0210740360277617
sg35
g1938
sbs(I-36
I0
tp1942
g0
(g29
g2
Ntp1943
Rp1944
(dp1945
g33
I01
sg34
F-1.6293616365467976
sg35
g1942
sbs(I-32
I8
tp1946
g0
(g29
g2
Ntp1947
Rp1948
(dp1949
g33
I01
sg34
F-1.3481700179003253
sg35
g1946
sbs(I-9
I24
tp1950
g0
(g29
g2
Ntp1951
Rp1952
(dp1953
g33
I01
sg34
F1.5983640018045495
sg35
g1950
sbs(I-25
I0
tp1954
g0
(g29
g2
Ntp1955
Rp1956
(dp1957
g33
I01
sg34
F-2.700514263481085
sg35
g1954
sbs(I-26
I8
tp1958
g0
(g29
g2
Ntp1959
Rp1960
(dp1961
g33
I01
sg34
F0.6129616603591812
sg35
g1958
sbs(I-21
I8
tp1962
g0
(g29
g2
Ntp1963
Rp1964
(dp1965
g33
I01
sg34
F2.335655599989593
sg35
g1962
sbs(I-15
I0
tp1966
g0
(g29
g2
Ntp1967
Rp1968
(dp1969
g33
I01
sg34
F1.4139065963603306
sg35
g1966
sbs(I-16
I8
tp1970
g0
(g29
g2
Ntp1971
Rp1972
(dp1973
g33
I01
sg34
F-0.11469539970647424
sg35
g1970
sbs(I-29
I8
tp1974
g0
(g29
g2
Ntp1975
Rp1976
(dp1977
g33
I01
sg34
F1.0033378945139837
sg35
g1974
sbs(I-24
I8
tp1978
g0
(g29
g2
Ntp1979
Rp1980
(dp1981
g33
I01
sg34
F-0.03698991812199448
sg35
g1978
sbs(I-9
I0
tp1982
g0
(g29
g2
Ntp1983
Rp1984
(dp1985
g33
I00
sg34
F-1.681306729475782
sg35
g1982
sbs(I-5
I8
tp1986
g0
(g29
g2
Ntp1987
Rp1988
(dp1989
g33
I01
sg34
F2.2797606695087156
sg35
g1986
sbs(I-25
I8
tp1990
g0
(g29
g2
Ntp1991
Rp1992
(dp1993
g33
I01
sg34
F2.2377542531289336
sg35
g1990
sbs(I-18
I8
tp1994
g0
(g29
g2
Ntp1995
Rp1996
(dp1997
g33
I01
sg34
F-0.944102144011324
sg35
g1994
sbs(I-20
I8
tp1998
g0
(g29
g2
Ntp1999
Rp2000
(dp2001
g33
I01
sg34
F1.4756544770824231
sg35
g1998
sbs(I-13
I8
tp2002
g0
(g29
g2
Ntp2003
Rp2004
(dp2005
g33
I01
sg34
F-2.04756833258589
sg35
g2002
sbs(I-15
I8
tp2006
g0
(g29
g2
Ntp2007
Rp2008
(dp2009
g33
I01
sg34
F0.9935569390165034
sg35
g2006
sbs(I-33
I8
tp2010
g0
(g29
g2
Ntp2011
Rp2012
(dp2013
g33
I01
sg34
F-0.7158751954024938
sg35
g2010
sbs(I-34
I0
tp2014
g0
(g29
g2
Ntp2015
Rp2016
(dp2017
g33
I01
sg34
F-0.4077916473591954
sg35
g2014
sbs(I-28
I8
tp2018
g0
(g29
g2
Ntp2019
Rp2020
(dp2021
g33
I01
sg34
F2.0374792437718248
sg35
g2018
sbs(I-30
I8
tp2022
g0
(g29
g2
Ntp2023
Rp2024
(dp2025
g33
I01
sg34
F-1.3220535639178033
sg35
g2022
sbs(I-23
I8
tp2026
g0
(g29
g2
Ntp2027
Rp2028
(dp2029
g33
I01
sg34
F-1.034376120257793
sg35
g2026
sbs(I-24
I0
tp2030
g0
(g29
g2
Ntp2031
Rp2032
(dp2033
g33
I01
sg34
F-0.627601076507718
sg35
g2030
sbs(I-9
I8
tp2034
g0
(g29
g2
Ntp2035
Rp2036
(dp2037
g33
I01
sg34
F1.6851894252455928
sg35
g2034
sbs(I-43
I8
tp2038
g0
(g29
g2
Ntp2039
Rp2040
(dp2041
g33
I01
sg34
F-0.018284970340592527
sg35
g2038
sbs(I-4
I8
tp2042
g0
(g29
g2
Ntp2043
Rp2044
(dp2045
g33
I01
sg34
F0.4738375849504355
sg35
g2042
sbs(I-39
I0
tp2046
g0
(g29
g2
Ntp2047
Rp2048
(dp2049
g33
I01
sg34
F0.28814154080818
sg35
g2046
sbs(I-12
I8
tp2050
g0
(g29
g2
Ntp2051
Rp2052
(dp2053
g33
I01
sg34
F-0.4897366781106299
sg35
g2050
sbs(I-13
I0
tp2054
g0
(g29
g2
Ntp2055
Rp2056
(dp2057
g33
I01
sg34
F0.5318231846278282
sg35
g2054
sbs(I-7
I8
tp2058
g0
(g29
g2
Ntp2059
Rp2060
(dp2061
g33
I01
sg34
F1.0428233948589265
sg35
g2058
sbs(I-8
I0
tp2062
g0
(g29
g2
Ntp2063
Rp2064
(dp2065
g33
I01
sg34
F0.28726938309368166
sg35
g2062
sbs(I-27
I8
tp2066
g0
(g29
g2
Ntp2067
Rp2068
(dp2069
g33
I01
sg34
F-1.4397086474607637
sg35
g2066
sbssg208
(dp2070
I0
g0
(g210
g2
Ntp2071
Rp2072
(dp2073
g214
g215
sg216
F-0.2090503739260538
sg217
F1.0
sg35
I0
sg218
g219
sbsI8
g0
(g210
g2
Ntp2074
Rp2075
(dp2076
g214
g215
sg216
F1.6656128453929584
sg217
F1.0
sg35
I8
sg218
g219
sbsI24
g0
(g210
g2
Ntp2077
Rp2078
(dp2079
g214
g215
sg216
F1.3988811170992401
sg217
F1.0
sg35
I24
sg218
g219
sbssg35
I107
sg223
I0
sbsS'members'
p2080
(dp2081
I133
g0
(g22
g2
Ntp2082
Rp2083
(dp2084
g26
(dp2085
g1886
g0
(g29
g2
Ntp2086
Rp2087
(dp2088
g33
I01
sg34
F0.006535003975240095
sg35
g1886
sbsg1890
g0
(g29
g2
Ntp2089
Rp2090
(dp2091
g33
I01
sg34
F-2.3698018134248793
sg35
g1890
sbsg1894
g0
(g29
g2
Ntp2092
Rp2093
(dp2094
g33
I01
sg34
F0.5202314405422455
sg35
g1894
sbsg1898
g0
(g29
g2
Ntp2095
Rp2096
(dp2097
g33
I01
sg34
F-0.30800919833158513
sg35
g1898
sbsg1902
g0
(g29
g2
Ntp2098
Rp2099
(dp2100
g33
I01
sg34
F-0.2330890017415471
sg35
g1902
sbsg1906
g0
(g29
g2
Ntp2101
Rp2102
(dp2103
g33
I01
sg34
F1.5070153191348756
sg35
g1906
sbsg1910
g0
(g29
g2
Ntp2104
Rp2105
(dp2106
g33
I01
sg34
F1.0622185093347931
sg35
g1910
sbsg1918
g0
(g29
g2
Ntp2107
Rp2108
(dp2109
g33
I01
sg34
F-0.7757142613550564
sg35
g1918
sbsg1922
g0
(g29
g2
Ntp2110
Rp2111
(dp2112
g33
I01
sg34
F3.726435040988903
sg35
g1922
sbsg1926
g0
(g29
g2
Ntp2113
Rp2114
(dp2115
g33
I01
sg34
F-0.9035165249109411
sg35
g1926
sbsg1930
g0
(g29
g2
Ntp2116
Rp2117
(dp2118
g33
I01
sg34
F-0.6669887489649428
sg35
g1930
sbsg1934
g0
(g29
g2
Ntp2119
Rp2120
(dp2121
g33
I01
sg34
F-0.6227005477468638
sg35
g1934
sbsg1938
g0
(g29
g2
Ntp2122
Rp2123
(dp2124
g33
I01
sg34
F0.8504077790430064
sg35
g1938
sbsg1942
g0
(g29
g2
Ntp2125
Rp2126
(dp2127
g33
I01
sg34
F-2.1069469526274354
sg35
g1942
sbsg1946
g0
(g29
g2
Ntp2128
Rp2129
(dp2130
g33
I01
sg34
F-1.3611347630064436
sg35
g1946
sbsg1950
g0
(g29
g2
Ntp2131
Rp2132
(dp2133
g33
I01
sg34
F2.0945343409471846
sg35
g1950
sbsg1954
g0
(g29
g2
Ntp2134
Rp2135
(dp2136
g33
I01
sg34
F-2.700514263481085
sg35
g1954
sbsg1958
g0
(g29
g2
Ntp2137
Rp2138
(dp2139
g33
I01
sg34
F1.5052122965222914
sg35
g1958
sbsg1962
g0
(g29
g2
Ntp2140
Rp2141
(dp2142
g33
I01
sg34
F2.0605223467472267
sg35
g1962
sbsg1966
g0
(g29
g2
Ntp2143
Rp2144
(dp2145
g33
I01
sg34
F0.941301193338259
sg35
g1966
sbsg1970
g0
(g29
g2
Ntp2146
Rp2147
(dp2148
g33
I01
sg34
F-0.5817251957836986
sg35
g1970
sbsg1974
g0
(g29
g2
Ntp2149
Rp2150
(dp2151
g33
I01
sg34
F1.7000101448157265
sg35
g1974
sbsg1978
g0
(g29
g2
Ntp2152
Rp2153
(dp2154
g33
I01
sg34
F-0.10734442727487713
sg35
g1978
sbsg1982
g0
(g29
g2
Ntp2155
Rp2156
(dp2157
g33
I00
sg34
F-2.5223730676384957
sg35
g1982
sbsg1986
g0
(g29
g2
Ntp2158
Rp2159
(dp2160
g33
I01
sg34
F1.688699797684683
sg35
g1986
sbsg1990
g0
(g29
g2
Ntp2161
Rp2162
(dp2163
g33
I01
sg34
F1.728904653107558
sg35
g1990
sbsg1994
g0
(g29
g2
Ntp2164
Rp2165
(dp2166
g33
I01
sg34
F-0.3316820144345488
sg35
g1994
sbsg1998
g0
(g29
g2
Ntp2167
Rp2168
(dp2169
g33
I01
sg34
F1.7286922042249557
sg35
g1998
sbsg2002
g0
(g29
g2
Ntp2170
Rp2171
(dp2172
g33
I01
sg34
F-2.04756833258589
sg35
g2002
sbs(I-14
I0
tp2173
g0
(g29
g2
Ntp2174
Rp2175
(dp2176
g33
I01
sg34
F0.4398551377726386
sg35
g2173
sbsg2006
g0
(g29
g2
Ntp2177
Rp2178
(dp2179
g33
I01
sg34
F0.9935569390165034
sg35
g2006
sbsg2010
g0
(g29
g2
Ntp2180
Rp2181
(dp2182
g33
I01
sg34
F-0.8211428859883209
sg35
g2010
sbsg2014
g0
(g29
g2
Ntp2183
Rp2184
(dp2185
g33
I01
sg34
F-0.4077916473591954
sg35
g2014
sbsg2018
g0
(g29
g2
Ntp2186
Rp2187
(dp2188
g33
I01
sg34
F1.8460535006223528
sg35
g2018
sbsg2022
g0
(g29
g2
Ntp2189
Rp2190
(dp2191
g33
I01
sg34
F-1.1207427192668726
sg35
g2022
sbsg2026
g0
(g29
g2
Ntp2192
Rp2193
(dp2194
g33
I01
sg34
F0.45554989387129996
sg35
g2026
sbsg2030
g0
(g29
g2
Ntp2195
Rp2196
(dp2197
g33
I01
sg34
F-0.627601076507718
sg35
g2030
sbsg2034
g0
(g29
g2
Ntp2198
Rp2199
(dp2200
g33
I01
sg34
F0.5061934732742854
sg35
g2034
sbsg2038
g0
(g29
g2
Ntp2201
Rp2202
(dp2203
g33
I01
sg34
F-0.3263211057526545
sg35
g2038
sbsg2042
g0
(g29
g2
Ntp2204
Rp2205
(dp2206
g33
I01
sg34
F0.5251354742778718
sg35
g2042
sbsg2046
g0
(g29
g2
Ntp2207
Rp2208
(dp2209
g33
I01
sg34
F-0.8191849782453646
sg35
g2046
sbsg2050
g0
(g29
g2
Ntp2210
Rp2211
(dp2212
g33
I01
sg34
F-0.5373775444115804
sg35
g2050
sbsg2054
g0
(g29
g2
Ntp2213
Rp2214
(dp2215
g33
I01
sg34
F0.07373553394176435
sg35
g2054
sbsg2058
g0
(g29
g2
Ntp2216
Rp2217
(dp2218
g33
I01
sg34
F-1.5423117640167285
sg35
g2058
sbsg2062
g0
(g29
g2
Ntp2219
Rp2220
(dp2221
g33
I01
sg34
F0.6195546745904659
sg35
g2062
sbsg2066
g0
(g29
g2
Ntp2222
Rp2223
(dp2224
g33
I01
sg34
F-1.274658495455628
sg35
g2066
sbssg208
(dp2225
I0
g0
(g210
g2
Ntp2226
Rp2227
(dp2228
g214
g215
sg216
F0.913348226962649
sg217
F1.0
sg35
I0
sg218
g219
sbsI8
g0
(g210
g2
Ntp2229
Rp2230
(dp2231
g214
g215
sg216
F2.379555665139488
sg217
F1.0
sg35
I8
sg218
g219
sbsI24
g0
(g210
g2
Ntp2232
Rp2233
(dp2234
g214
g215
sg216
F1.272883609113
sg217
F1.0
sg35
I24
sg218
g219
sbssg35
I133
sg223
I0
sbsI134
g0
(g22
g2
Ntp2235
Rp2236
(dp2237
g26
(dp2238
(I-24
I24
tp2239
g0
(g29
g2
Ntp2240
Rp2241
(dp2242
g33
I01
sg34
F0.14669679412916325
sg35
g2239
sbsg1886
g0
(g29
g2
Ntp2243
Rp2244
(dp2245
g33
I01
sg34
F0.4771335389747456
sg35
g1886
sbsg1890
g0
(g29
g2
Ntp2246
Rp2247
(dp2248
g33
I01
sg34
F-2.265642733450519
sg35
g1890
sbsg1894
g0
(g29
g2
Ntp2249
Rp2250
(dp2251
g33
I01
sg34
F0.0924619326695062
sg35
g1894
sbsg1898
g0
(g29
g2
Ntp2252
Rp2253
(dp2254
g33
I01
sg34
F-1.1105266948832924
sg35
g1898
sbsg1902
g0
(g29
g2
Ntp2255
Rp2256
(dp2257
g33
I01
sg34
F0.22655860975825626
sg35
g1902
sbsg1906
g0
(g29
g2
Ntp2258
Rp2259
(dp2260
g33
I01
sg34
F1.1612086888303343
sg35
g1906
sbsg1910
g0
(g29
g2
Ntp2261
Rp2262
(dp2263
g33
I01
sg34
F0.9094986821638438
sg35
g1910
sbsg1914
g0
(g29
g2
Ntp2264
Rp2265
(dp2266
g33
I01
sg34
F3.235548832831386
sg35
g1914
sbsg1918
g0
(g29
g2
Ntp2267
Rp2268
(dp2269
g33
I01
sg34
F-1.2679893991329128
sg35
g1918
sbsg1922
g0
(g29
g2
Ntp2270
Rp2271
(dp2272
g33
I01
sg34
F3.318672245376653
sg35
g1922
sbsg1926
g0
(g29
g2
Ntp2273
Rp2274
(dp2275
g33
I01
sg34
F-1.2137265302536469
sg35
g1926
sbsg1930
g0
(g29
g2
Ntp2276
Rp2277
(dp2278
g33
I01
sg34
F0.0128506246344076
sg35
g1930
sbsg1934
g0
(g29
g2
Ntp2279
Rp2280
(dp2281
g33
I01
sg34
F-1.2604994601656112
sg35
g1934
sbsg1938
g0
(g29
g2
Ntp2282
Rp2283
(dp2284
g33
I01
sg34
F1.3851594127184415
sg35
g1938
sbsg1942
g0
(g29
g2
Ntp2285
Rp2286
(dp2287
g33
I01
sg34
F-0.1852616284283153
sg35
g1942
sbsg1946
g0
(g29
g2
Ntp2288
Rp2289
(dp2290
g33
I01
sg34
F-1.4316585064582248
sg35
g1946
sbsg1950
g0
(g29
g2
Ntp2291
Rp2292
(dp2293
g33
I01
sg34
F1.9775719995199355
sg35
g1950
sbsg1954
g0
(g29
g2
Ntp2294
Rp2295
(dp2296
g33
I01
sg34
F-2.7844252880563154
sg35
g1954
sbsg1958
g0
(g29
g2
Ntp2297
Rp2298
(dp2299
g33
I01
sg34
F0.6421853203671992
sg35
g1958
sbsg1962
g0
(g29
g2
Ntp2300
Rp2301
(dp2302
g33
I01
sg34
F2.3603293963068985
sg35
g1962
sbsg1966
g0
(g29
g2
Ntp2303
Rp2304
(dp2305
g33
I01
sg34
F1.4591584130345747
sg35
g1966
sbsg1970
g0
(g29
g2
Ntp2306
Rp2307
(dp2308
g33
I01
sg34
F-0.852716219018327
sg35
g1970
sbsg1974
g0
(g29
g2
Ntp2309
Rp2310
(dp2311
g33
I01
sg34
F0.6100085799423661
sg35
g1974
sbsg1978
g0
(g29
g2
Ntp2312
Rp2313
(dp2314
g33
I01
sg34
F0.2289305995446222
sg35
g1978
sbsg1982
g0
(g29
g2
Ntp2315
Rp2316
(dp2317
g33
I00
sg34
F-1.9021434215430895
sg35
g1982
sbsg1986
g0
(g29
g2
Ntp2318
Rp2319
(dp2320
g33
I01
sg34
F1.9518441443946806
sg35
g1986
sbsg1990
g0
(g29
g2
Ntp2321
Rp2322
(dp2323
g33
I01
sg34
F2.848177505455614
sg35
g1990
sbsg1994
g0
(g29
g2
Ntp2324
Rp2325
(dp2326
g33
I01
sg34
F-0.944102144011324
sg35
g1994
sbsg1998
g0
(g29
g2
Ntp2327
Rp2328
(dp2329
g33
I01
sg34
F1.4756544770824231
sg35
g1998
sbsg2002
g0
(g29
g2
Ntp2330
Rp2331
(dp2332
g33
I01
sg34
F-2.1081017521593215
sg35
g2002
sbsg2006
g0
(g29
g2
Ntp2333
Rp2334
(dp2335
g33
I01
sg34
F1.8890512106943207
sg35
g2006
sbsg2010
g0
(g29
g2
Ntp2336
Rp2337
(dp2338
g33
I01
sg34
F-0.7158751954024938
sg35
g2010
sbsg2014
g0
(g29
g2
Ntp2339
Rp2340
(dp2341
g33
I01
sg34
F-0.5205211013639399
sg35
g2014
sbsg2018
g0
(g29
g2
Ntp2342
Rp2343
(dp2344
g33
I01
sg34
F1.5964062529962229
sg35
g2018
sbsg2022
g0
(g29
g2
Ntp2345
Rp2346
(dp2347
g33
I01
sg34
F-2.7366878461950774
sg35
g2022
sbsg2026
g0
(g29
g2
Ntp2348
Rp2349
(dp2350
g33
I01
sg34
F-1.4475020919923627
sg35
g2026
sbsg2030
g0
(g29
g2
Ntp2351
Rp2352
(dp2353
g33
I01
sg34
F0.4214180389455817
sg35
g2030
sbsg2034
g0
(g29
g2
Ntp2354
Rp2355
(dp2356
g33
I01
sg34
F1.6851894252455928
sg35
g2034
sbsg2038
g0
(g29
g2
Ntp2357
Rp2358
(dp2359
g33
I01
sg34
F-0.33157402067862607
sg35
g2038
sbsg2042
g0
(g29
g2
Ntp2360
Rp2361
(dp2362
g33
I01
sg34
F0.7592740570801151
sg35
g2042
sbsg2046
g0
(g29
g2
Ntp2363
Rp2364
(dp2365
g33
I01
sg34
F0.3972267180950834
sg35
g2046
sbsg2050
g0
(g29
g2
Ntp2366
Rp2367
(dp2368
g33
I01
sg34
F0.7115785194436175
sg35
g2050
sbsg2054
g0
(g29
g2
Ntp2369
Rp2370
(dp2371
g33
I01
sg34
F-0.36023276503838475
sg35
g2054
sbsg2058
g0
(g29
g2
Ntp2372
Rp2373
(dp2374
g33
I01
sg34
F1.0330132371595817
sg35
g2058
sbsg2062
g0
(g29
g2
Ntp2375
Rp2376
(dp2377
g33
I01
sg34
F-0.45239847796268073
sg35
g2062
sbsg2066
g0
(g29
g2
Ntp2378
Rp2379
(dp2380
g33
I01
sg34
F-1.1186263923911928
sg35
g2066
sbssg208
(dp2381
I0
g0
(g210
g2
Ntp2382
Rp2383
(dp2384
g214
g215
sg216
F-0.2090503739260538
sg217
F1.0
sg35
I0
sg218
g219
sbsI8
g0
(g210
g2
Ntp2385
Rp2386
(dp2387
g214
g215
sg216
F1.6656128453929584
sg217
F1.0
sg35
I8
sg218
g219
sbsI24
g0
(g210
g2
Ntp2388
Rp2389
(dp2390
g214
g215
sg216
F-0.7924440085505505
sg217
F1.0
sg35
I24
sg218
g219
sbssg35
I134
sg223
I0
sbsI135
g0
(g22
g2
Ntp2391
Rp2392
(dp2393
g26
(dp2394
g1886
g0
(g29
g2
Ntp2395
Rp2396
(dp2397
g33
I01
sg34
F0.8789690264047312
sg35
g1886
sbsg1890
g0
(g29
g2
Ntp2398
Rp2399
(dp2400
g33
I01
sg34
F-2.1767750469898255
sg35
g1890
sbsg1894
g0
(g29
g2
Ntp2401
Rp2402
(dp2403
g33
I01
sg34
F1.1444093246849585
sg35
g1894
sbsg1898
g0
(g29
g2
Ntp2404
Rp2405
(dp2406
g33
I01
sg34
F-0.9094370517786461
sg35
g1898
sbsg1902
g0
(g29
g2
Ntp2407
Rp2408
(dp2409
g33
I01
sg34
F0.29864205725525056
sg35
g1902
sbsg1906
g0
(g29
g2
Ntp2410
Rp2411
(dp2412
g33
I01
sg34
F0.7718900948560186
sg35
g1906
sbsg1910
g0
(g29
g2
Ntp2413
Rp2414
(dp2415
g33
I01
sg34
F0.8612879640686704
sg35
g1910
sbsg1914
g0
(g29
g2
Ntp2416
Rp2417
(dp2418
g33
I01
sg34
F3.353869182502034
sg35
g1914
sbsg1918
g0
(g29
g2
Ntp2419
Rp2420
(dp2421
g33
I01
sg34
F-1.5655460751776271
sg35
g1918
sbsg1922
g0
(g29
g2
Ntp2422
Rp2423
(dp2424
g33
I01
sg34
F3.605346648167259
sg35
g1922
sbsg1926
g0
(g29
g2
Ntp2425
Rp2426
(dp2427
g33
I01
sg34
F-1.581282840153834
sg35
g1926
sbsg1930
g0
(g29
g2
Ntp2428
Rp2429
(dp2430
g33
I01
sg34
F-0.13351174908526003
sg35
g1930
sbsg1934
g0
(g29
g2
Ntp2431
Rp2432
(dp2433
g33
I01
sg34
F-0.3519171386343257
sg35
g1934
sbsg1938
g0
(g29
g2
Ntp2434
Rp2435
(dp2436
g33
I01
sg34
F0.6696923961710991
sg35
g1938
sbsg1942
g0
(g29
g2
Ntp2437
Rp2438
(dp2439
g33
I01
sg34
F-0.8950371278997741
sg35
g1942
sbsg1946
g0
(g29
g2
Ntp2440
Rp2441
(dp2442
g33
I01
sg34
F-0.9952364803005735
sg35
g1946
sbsg1950
g0
(g29
g2
Ntp2443
Rp2444
(dp2445
g33
I01
sg34
F2.0785635354435597
sg35
g1950
sbsg1954
g0
(g29
g2
Ntp2446
Rp2447
(dp2448
g33
I01
sg34
F-2.8763264745933936
sg35
g1954
sbsg1958
g0
(g29
g2
Ntp2449
Rp2450
(dp2451
g33
I01
sg34
F0.28752984877406146
sg35
g1958
sbsg1962
g0
(g29
g2
Ntp2452
Rp2453
(dp2454
g33
I01
sg34
F1.8074381706942289
sg35
g1962
sbsg1966
g0
(g29
g2
Ntp2455
Rp2456
(dp2457
g33
I01
sg34
F1.964737756280262
sg35
g1966
sbsg1970
g0
(g29
g2
Ntp2458
Rp2459
(dp2460
g33
I01
sg34
F0.08914182236847046
sg35
g1970
sbsg1974
g0
(g29
g2
Ntp2461
Rp2462
(dp2463
g33
I01
sg34
F1.9359000635881847
sg35
g1974
sbsg1978
g0
(g29
g2
Ntp2464
Rp2465
(dp2466
g33
I01
sg34
F-0.9616221477738978
sg35
g1978
sbsg1982
g0
(g29
g2
Ntp2467
Rp2468
(dp2469
g33
I00
sg34
F-2.1243090501667474
sg35
g1982
sbsg1986
g0
(g29
g2
Ntp2470
Rp2471
(dp2472
g33
I01
sg34
F2.675650465382567
sg35
g1986
sbsg1990
g0
(g29
g2
Ntp2473
Rp2474
(dp2475
g33
I01
sg34
F1.7874725130668117
sg35
g1990
sbsg1994
g0
(g29
g2
Ntp2476
Rp2477
(dp2478
g33
I01
sg34
F-1.3081595714474923
sg35
g1994
sbsg1998
g0
(g29
g2
Ntp2479
Rp2480
(dp2481
g33
I01
sg34
F0.6749437951543364
sg35
g1998
sbsg2002
g0
(g29
g2
Ntp2482
Rp2483
(dp2484
g33
I01
sg34
F-1.6638831106824894
sg35
g2002
sbsg2006
g0
(g29
g2
Ntp2485
Rp2486
(dp2487
g33
I01
sg34
F0.9935569390165034
sg35
g2006
sbsg2010
g0
(g29
g2
Ntp2488
Rp2489
(dp2490
g33
I01
sg34
F-0.9613492629667048
sg35
g2010
sbsg2014
g0
(g29
g2
Ntp2491
Rp2492
(dp2493
g33
I01
sg34
F0.2605406880871808
sg35
g2014
sbsg2018
g0
(g29
g2
Ntp2494
Rp2495
(dp2496
g33
I01
sg34
F1.0913998601268242
sg35
g2018
sbsg2022
g0
(g29
g2
Ntp2497
Rp2498
(dp2499
g33
I01
sg34
F-1.610086750122309
sg35
g2022
sbsg2026
g0
(g29
g2
Ntp2500
Rp2501
(dp2502
g33
I01
sg34
F-0.7202102728217892
sg35
g2026
sbsg2030
g0
(g29
g2
Ntp2503
Rp2504
(dp2505
g33
I01
sg34
F-0.7958580228785969
sg35
g2030
sbsg2034
g0
(g29
g2
Ntp2506
Rp2507
(dp2508
g33
I00
sg34
F2.1849579069636214
sg35
g2034
sbsg2038
g0
(g29
g2
Ntp2509
Rp2510
(dp2511
g33
I01
sg34
F-0.018284970340592527
sg35
g2038
sbsg2042
g0
(g29
g2
Ntp2512
Rp2513
(dp2514
g33
I01
sg34
F1.2250083125553495
sg35
g2042
sbsg2046
g0
(g29
g2
Ntp2515
Rp2516
(dp2517
g33
I01
sg34
F0.259055862439066
sg35
g2046
sbsg2050
g0
(g29
g2
Ntp2518
Rp2519
(dp2520
g33
I01
sg34
F-1.240221555282918
sg35
g2050
sbsg2054
g0
(g29
g2
Ntp2521
Rp2522
(dp2523
g33
I01
sg34
F1.3933870334647898
sg35
g2054
sbsg2058
g0
(g29
g2
Ntp2524
Rp2525
(dp2526
g33
I01
sg34
F1.0428233948589265
sg35
g2058
sbsg2062
g0
(g29
g2
Ntp2527
Rp2528
(dp2529
g33
I01
sg34
F0.007145752429663754
sg35
g2062
sbsg2066
g0
(g29
g2
Ntp2530
Rp2531
(dp2532
g33
I01
sg34
F-1.1211219770370981
sg35
g2066
sbssg208
(dp2533
I0
g0
(g210
g2
Ntp2534
Rp2535
(dp2536
g214
g215
sg216
F-0.2046172773199739
sg217
F1.0
sg35
I0
sg218
g219
sbsI8
g0
(g210
g2
Ntp2537
Rp2538
(dp2539
g214
g215
sg216
F1.6581864158417796
sg217
F1.0
sg35
I8
sg218
g219
sbsI24
g0
(g210
g2
Ntp2540
Rp2541
(dp2542
g214
g215
sg216
F1.4977077064082538
sg217
F1.0
sg35
I24
sg218
g219
sbssg35
I135
sg223
I0
sbsI104
g0
(g22
g2
Ntp2543
Rp2544
(dp2545
g26
(dp2546
g1886
g0
(g29
g2
Ntp2547
Rp2548
(dp2549
g33
I01
sg34
F-0.47089718511479495
sg35
g1886
sbsg1890
g0
(g29
g2
Ntp2550
Rp2551
(dp2552
g33
I01
sg34
F0.18969767087735562
sg35
g1890
sbs(I8
I0
tp2553
g0
(g29
g2
Ntp2554
Rp2555
(dp2556
g33
I01
sg34
F0.03630902256419344
sg35
g2553
sbsg1894
g0
(g29
g2
Ntp2557
Rp2558
(dp2559
g33
I01
sg34
F0.11899880862885515
sg35
g1894
sbsg1898
g0
(g29
g2
Ntp2560
Rp2561
(dp2562
g33
I01
sg34
F-0.10217067181204736
sg35
g1898
sbsg1902
g0
(g29
g2
Ntp2563
Rp2564
(dp2565
g33
I01
sg34
F-0.46761069602634864
sg35
g1902
sbsg1906
g0
(g29
g2
Ntp2566
Rp2567
(dp2568
g33
I01
sg34
F0.6222378324063782
sg35
g1906
sbsg1910
g0
(g29
g2
Ntp2569
Rp2570
(dp2571
g33
I01
sg34
F2.565875077627107
sg35
g1910
sbsg1914
g0
(g29
g2
Ntp2572
Rp2573
(dp2574
g33
I01
sg34
F0.2924381706057562
sg35
g1914
sbsg1918
g0
(g29
g2
Ntp2575
Rp2576
(dp2577
g33
I01
sg34
F0.44831978828959446
sg35
g1918
sbsg1922
g0
(g29
g2
Ntp2578
Rp2579
(dp2580
g33
I01
sg34
F3.1606967457918755
sg35
g1922
sbsg1926
g0
(g29
g2
Ntp2581
Rp2582
(dp2583
g33
I01
sg34
F0.165834563074443
sg35
g1926
sbsg1930
g0
(g29
g2
Ntp2584
Rp2585
(dp2586
g33
I01
sg34
F-0.7539183205134589
sg35
g1930
sbsg1934
g0
(g29
g2
Ntp2587
Rp2588
(dp2589
g33
I01
sg34
F-1.7407553520244392
sg35
g1934
sbsg1938
g0
(g29
g2
Ntp2590
Rp2591
(dp2592
g33
I01
sg34
F0.5599988887194518
sg35
g1938
sbsg1942
g0
(g29
g2
Ntp2593
Rp2594
(dp2595
g33
I01
sg34
F-1.7941991901910808
sg35
g1942
sbsg1946
g0
(g29
g2
Ntp2596
Rp2597
(dp2598
g33
I01
sg34
F-1.2749928271611628
sg35
g1946
sbsg1950
g0
(g29
g2
Ntp2599
Rp2600
(dp2601
g33
I01
sg34
F2.3875950358701603
sg35
g1950
sbsg1954
g0
(g29
g2
Ntp2602
Rp2603
(dp2604
g33
I00
sg34
F-3.0562535906593027
sg35
g1954
sbsg1958
g0
(g29
g2
Ntp2605
Rp2606
(dp2607
g33
I01
sg34
F-0.4304165485079928
sg35
g1958
sbsg1962
g0
(g29
g2
Ntp2608
Rp2609
(dp2610
g33
I01
sg34
F0.016683962130856794
sg35
g1962
sbsg1966
g0
(g29
g2
Ntp2611
Rp2612
(dp2613
g33
I01
sg34
F2.200585220622044
sg35
g1966
sbsg1970
g0
(g29
g2
Ntp2614
Rp2615
(dp2616
g33
I01
sg34
F-0.27708076950498806
sg35
g1970
sbsg1974
g0
(g29
g2
Ntp2617
Rp2618
(dp2619
g33
I01
sg34
F0.18096365977470108
sg35
g1974
sbsg1978
g0
(g29
g2
Ntp2620
Rp2621
(dp2622
g33
I01
sg34
F0.6399887717675028
sg35
g1978
sbsg1982
g0
(g29
g2
Ntp2623
Rp2624
(dp2625
g33
I00
sg34
F-1.6696246066734772
sg35
g1982
sbsg1986
g0
(g29
g2
Ntp2626
Rp2627
(dp2628
g33
I01
sg34
F2.2797606695087156
sg35
g1986
sbs(I-25
I32
tp2629
g0
(g29
g2
Ntp2630
Rp2631
(dp2632
g33
I01
sg34
F1.1006308993873914
sg35
g2629
sbsg1990
g0
(g29
g2
Ntp2633
Rp2634
(dp2635
g33
I01
sg34
F2.6971466488786353
sg35
g1990
sbsg1994
g0
(g29
g2
Ntp2636
Rp2637
(dp2638
g33
I01
sg34
F-1.2373726661858455
sg35
g1994
sbsg1998
g0
(g29
g2
Ntp2639
Rp2640
(dp2641
g33
I01
sg34
F-0.7309721146413712
sg35
g1998
sbsg2002
g0
(g29
g2
Ntp2642
Rp2643
(dp2644
g33
I01
sg34
F-3.0574347223101968
sg35
g2002
sbsg2006
g0
(g29
g2
Ntp2645
Rp2646
(dp2647
g33
I01
sg34
F0.309652745731271
sg35
g2006
sbs(I32
I0
tp2648
g0
(g29
g2
Ntp2649
Rp2650
(dp2651
g33
I01
sg34
F-3.65898986750745
sg35
g2648
sbsg2010
g0
(g29
g2
Ntp2652
Rp2653
(dp2654
g33
I01
sg34
F-0.6827579710190059
sg35
g2010
sbsg2014
g0
(g29
g2
Ntp2655
Rp2656
(dp2657
g33
I01
sg34
F-1.1919568436975447
sg35
g2014
sbsg2018
g0
(g29
g2
Ntp2658
Rp2659
(dp2660
g33
I01
sg34
F1.375605523150918
sg35
g2018
sbsg2022
g0
(g29
g2
Ntp2661
Rp2662
(dp2663
g33
I01
sg34
F-1.685400046971564
sg35
g2022
sbsg2026
g0
(g29
g2
Ntp2664
Rp2665
(dp2666
g33
I01
sg34
F-0.7268962030159479
sg35
g2026
sbsg2030
g0
(g29
g2
Ntp2667
Rp2668
(dp2669
g33
I01
sg34
F-1.7471752269859853
sg35
g2030
sbsg2034
g0
(g29
g2
Ntp2670
Rp2671
(dp2672
g33
I01
sg34
F1.8824957353527365
sg35
g2034
sbsg2038
g0
(g29
g2
Ntp2673
Rp2674
(dp2675
g33
I01
sg34
F-0.2592653082587179
sg35
g2038
sbsg2042
g0
(g29
g2
Ntp2676
Rp2677
(dp2678
g33
I01
sg34
F1.6353588275977955
sg35
g2042
sbsg2046
g0
(g29
g2
Ntp2679
Rp2680
(dp2681
g33
I01
sg34
F1.4733334125137107
sg35
g2046
sbsg2050
g0
(g29
g2
Ntp2682
Rp2683
(dp2684
g33
I01
sg34
F0.17324909292343532
sg35
g2050
sbsg2054
g0
(g29
g2
Ntp2685
Rp2686
(dp2687
g33
I01
sg34
F-0.428767220345785
sg35
g2054
sbsg2058
g0
(g29
g2
Ntp2688
Rp2689
(dp2690
g33
I01
sg34
F1.0428233948589265
sg35
g2058
sbsg2062
g0
(g29
g2
Ntp2691
Rp2692
(dp2693
g33
I01
sg34
F-0.9460667715403741
sg35
g2062
sbsg2066
g0
(g29
g2
Ntp2694
Rp2695
(dp2696
g33
I01
sg34
F-1.2543113446938472
sg35
g2066
sbssg208
(dp2697
I0
g0
(g210
g2
Ntp2698
Rp2699
(dp2700
g214
g215
sg216
F-1.832265384728777
sg217
F1.0
sg35
I0
sg218
g219
sbsI8
g0
(g210
g2
Ntp2701
Rp2702
(dp2703
g214
g215
sg216
F2.1172966603480807
sg217
F1.0
sg35
I8
sg218
g219
sbsI24
g0
(g210
g2
Ntp2704
Rp2705
(dp2706
g214
g215
sg216
F1.3293962562032307
sg217
F1.0
sg35
I24
sg218
g219
sbsI32
g0
(g210
g2
Ntp2707
Rp2708
(dp2709
g214
g215
sg216
F-0.22149173743939976
sg217
F1.0
sg35
I32
sg218
g219
sbssg35
I104
sg223
I0
sbsI107
g1883
sI136
g0
(g22
g2
Ntp2710
Rp2711
(dp2712
g26
(dp2713
g1886
g0
(g29
g2
Ntp2714
Rp2715
(dp2716
g33
I01
sg34
F0.7873759179564612
sg35
g1886
sbsg1890
g0
(g29
g2
Ntp2717
Rp2718
(dp2719
g33
I01
sg34
F-0.29648512928506593
sg35
g1890
sbsg1894
g0
(g29
g2
Ntp2720
Rp2721
(dp2722
g33
I01
sg34
F0.2534435027818117
sg35
g1894
sbsg1898
g0
(g29
g2
Ntp2723
Rp2724
(dp2725
g33
I01
sg34
F0.9893383364287984
sg35
g1898
sbsg1902
g0
(g29
g2
Ntp2726
Rp2727
(dp2728
g33
I01
sg34
F-0.19134009510351263
sg35
g1902
sbsg1906
g0
(g29
g2
Ntp2729
Rp2730
(dp2731
g33
I01
sg34
F0.7265496746046314
sg35
g1906
sbsg1910
g0
(g29
g2
Ntp2732
Rp2733
(dp2734
g33
I01
sg34
F0.8282787120163766
sg35
g1910
sbsg1914
g0
(g29
g2
Ntp2735
Rp2736
(dp2737
g33
I01
sg34
F0.7321848417866941
sg35
g1914
sbsg1918
g0
(g29
g2
Ntp2738
Rp2739
(dp2740
g33
I01
sg34
F0.8614579880414059
sg35
g1918
sbsg1922
g0
(g29
g2
Ntp2741
Rp2742
(dp2743
g33
I01
sg34
F3.797327860046495
sg35
g1922
sbsg1926
g0
(g29
g2
Ntp2744
Rp2745
(dp2746
g33
I01
sg34
F0.9332985339802827
sg35
g1926
sbsg1930
g0
(g29
g2
Ntp2747
Rp2748
(dp2749
g33
I01
sg34
F0.6157612010020787
sg35
g1930
sbsg1934
g0
(g29
g2
Ntp2750
Rp2751
(dp2752
g33
I01
sg34
F-2.128748142958667
sg35
g1934
sbsg1938
g0
(g29
g2
Ntp2753
Rp2754
(dp2755
g33
I01
sg34
F0.9542641382711179
sg35
g1938
sbsg1942
g0
(g29
g2
Ntp2756
Rp2757
(dp2758
g33
I01
sg34
F-1.452289166425042
sg35
g1942
sbsg1946
g0
(g29
g2
Ntp2759
Rp2760
(dp2761
g33
I01
sg34
F-1.8309205327044817
sg35
g1946
sbsg1950
g0
(g29
g2
Ntp2762
Rp2763
(dp2764
g33
I01
sg34
F0.9236984953746682
sg35
g1950
sbsg1954
g0
(g29
g2
Ntp2765
Rp2766
(dp2767
g33
I01
sg34
F-2.462927826273006
sg35
g1954
sbsg1958
g0
(g29
g2
Ntp2768
Rp2769
(dp2770
g33
I01
sg34
F1.0703486066931749
sg35
g1958
sbsg1962
g0
(g29
g2
Ntp2771
Rp2772
(dp2773
g33
I01
sg34
F2.902851205823203
sg35
g1962
sbsg1966
g0
(g29
g2
Ntp2774
Rp2775
(dp2776
g33
I01
sg34
F1.815831927242522
sg35
g1966
sbsg1970
g0
(g29
g2
Ntp2777
Rp2778
(dp2779
g33
I01
sg34
F-0.27708076950498806
sg35
g1970
sbsg1974
g0
(g29
g2
Ntp2780
Rp2781
(dp2782
g33
I01
sg34
F0.808383054747706
sg35
g1974
sbsg1978
g0
(g29
g2
Ntp2783
Rp2784
(dp2785
g33
I01
sg34
F0.4555789276147162
sg35
g1978
sbsg1982
g0
(g29
g2
Ntp2786
Rp2787
(dp2788
g33
I00
sg34
F-1.4243297530398722
sg35
g1982
sbsg1986
g0
(g29
g2
Ntp2789
Rp2790
(dp2791
g33
I01
sg34
F2.2797606695087156
sg35
g1986
sbsg1990
g0
(g29
g2
Ntp2792
Rp2793
(dp2794
g33
I01
sg34
F2.4070643392218884
sg35
g1990
sbsg1994
g0
(g29
g2
Ntp2795
Rp2796
(dp2797
g33
I01
sg34
F-1.2373726661858455
sg35
g1994
sbsg1998
g0
(g29
g2
Ntp2798
Rp2799
(dp2800
g33
I01
sg34
F0.9630653080263255
sg35
g1998
sbsg2002
g0
(g29
g2
Ntp2801
Rp2802
(dp2803
g33
I01
sg34
F-3.1138933046190282
sg35
g2002
sbsg2006
g0
(g29
g2
Ntp2804
Rp2805
(dp2806
g33
I01
sg34
F0.5495965064807066
sg35
g2006
sbsg2010
g0
(g29
g2
Ntp2807
Rp2808
(dp2809
g33
I01
sg34
F-0.24706952560730305
sg35
g2010
sbsg2014
g0
(g29
g2
Ntp2810
Rp2811
(dp2812
g33
I01
sg34
F-1.8866036783452285
sg35
g2014
sbsg2018
g0
(g29
g2
Ntp2813
Rp2814
(dp2815
g33
I01
sg34
F2.186974233091533
sg35
g2018
sbsg2022
g0
(g29
g2
Ntp2816
Rp2817
(dp2818
g33
I01
sg34
F-0.9139235295047746
sg35
g2022
sbsg2026
g0
(g29
g2
Ntp2819
Rp2820
(dp2821
g33
I01
sg34
F-1.4867080809976463
sg35
g2026
sbsg2030
g0
(g29
g2
Ntp2822
Rp2823
(dp2824
g33
I01
sg34
F-2.4741915355943087
sg35
g2030
sbsg2034
g0
(g29
g2
Ntp2825
Rp2826
(dp2827
g33
I01
sg34
F2.3831544421996145
sg35
g2034
sbsg2038
g0
(g29
g2
Ntp2828
Rp2829
(dp2830
g33
I01
sg34
F-0.5919339782133062
sg35
g2038
sbsg2042
g0
(g29
g2
Ntp2831
Rp2832
(dp2833
g33
I01
sg34
F1.3865635623199033
sg35
g2042
sbsg2046
g0
(g29
g2
Ntp2834
Rp2835
(dp2836
g33
I01
sg34
F2.0224656712524465
sg35
g2046
sbsg2050
g0
(g29
g2
Ntp2837
Rp2838
(dp2839
g33
I01
sg34
F-0.7740018672863789
sg35
g2050
sbsg2054
g0
(g29
g2
Ntp2840
Rp2841
(dp2842
g33
I01
sg34
F0.2625685663128418
sg35
g2054
sbsg2058
g0
(g29
g2
Ntp2843
Rp2844
(dp2845
g33
I01
sg34
F1.4097448237382486
sg35
g2058
sbsg2062
g0
(g29
g2
Ntp2846
Rp2847
(dp2848
g33
I01
sg34
F0.24164774558789381
sg35
g2062
sbsg2066
g0
(g29
g2
Ntp2849
Rp2850
(dp2851
g33
I01
sg34
F-0.7100123374123297
sg35
g2066
sbssg208
(dp2852
I0
g0
(g210
g2
Ntp2853
Rp2854
(dp2855
g214
g215
sg216
F-0.3194416324115694
sg217
F1.0
sg35
I0
sg218
g219
sbsI8
g0
(g210
g2
Ntp2856
Rp2857
(dp2858
g214
g215
sg216
F1.5446926998381731
sg217
F1.0
sg35
I8
sg218
g219
sbsI24
g0
(g210
g2
Ntp2859
Rp2860
(dp2861
g214
g215
sg216
F1.3293962562032307
sg217
F1.0
sg35
I24
sg218
g219
sbssg35
I136
sg223
I0
sbssg223
F-23.4
sbsI2
g0
(g1872
g2
Ntp2862
Rp2863
(dp2864
g1876
F0.5391419098721808
sg35
I2
sg1877
I0
sg1878
I8
sg1879
(lp2865
I-1000
aF18.4
aF15.5
aF16.5
aF18.2
aF18.7
aF18.1
aF18.6
aF18.8
asg1881
g1425
sg2080
(dp2866
I131
g0
(g22
g2
Ntp2867
Rp2868
(dp2869
g26
(dp2870
g28
g0
(g29
g2
Ntp2871
Rp2872
(dp2873
g33
I01
sg34
F0.7371116547611886
sg35
g28
sbsg40
g0
(g29
g2
Ntp2874
Rp2875
(dp2876
g33
I01
sg34
F2.1673839540297317
sg35
g40
sbsg44
g0
(g29
g2
Ntp2877
Rp2878
(dp2879
g33
I01
sg34
F-1.0789869628646431
sg35
g44
sbsg48
g0
(g29
g2
Ntp2880
Rp2881
(dp2882
g33
I01
sg34
F-0.0246052697064916
sg35
g48
sbsg100
g0
(g29
g2
Ntp2883
Rp2884
(dp2885
g33
I01
sg34
F2.5372546919261945
sg35
g100
sbsg56
g0
(g29
g2
Ntp2886
Rp2887
(dp2888
g33
I01
sg34
F-1.7009688455910208
sg35
g56
sbsg68
g0
(g29
g2
Ntp2889
Rp2890
(dp2891
g33
I01
sg34
F0.23507084662031216
sg35
g68
sbsg84
g0
(g29
g2
Ntp2892
Rp2893
(dp2894
g33
I01
sg34
F-0.6184076591114995
sg35
g84
sbsg92
g0
(g29
g2
Ntp2895
Rp2896
(dp2897
g33
I01
sg34
F0.001201724278313665
sg35
g92
sbsg108
g0
(g29
g2
Ntp2898
Rp2899
(dp2900
g33
I01
sg34
F1.9021743062533543
sg35
g108
sbsg112
g0
(g29
g2
Ntp2901
Rp2902
(dp2903
g33
I01
sg34
F-0.6915902818192141
sg35
g112
sbsg120
g0
(g29
g2
Ntp2904
Rp2905
(dp2906
g33
I01
sg34
F0.3396685526229043
sg35
g120
sbsg294
g0
(g29
g2
Ntp2907
Rp2908
(dp2909
g33
I00
sg34
F-1.9204460095409015
sg35
g294
sbsg140
g0
(g29
g2
Ntp2910
Rp2911
(dp2912
g33
I01
sg34
F-0.39398837846113305
sg35
g140
sbsg152
g0
(g29
g2
Ntp2913
Rp2914
(dp2915
g33
I01
sg34
F-0.9496750755419081
sg35
g152
sbsg156
g0
(g29
g2
Ntp2916
Rp2917
(dp2918
g33
I01
sg34
F-0.09472252902762315
sg35
g156
sbsg124
g0
(g29
g2
Ntp2919
Rp2920
(dp2921
g33
I01
sg34
F-2.32670994540944
sg35
g124
sbsg168
g0
(g29
g2
Ntp2922
Rp2923
(dp2924
g33
I01
sg34
F1.336470519574032
sg35
g168
sbsg172
g0
(g29
g2
Ntp2925
Rp2926
(dp2927
g33
I01
sg34
F1.3927522584310579
sg35
g172
sbsg180
g0
(g29
g2
Ntp2928
Rp2929
(dp2930
g33
I01
sg34
F-1.7690193572561235
sg35
g180
sbsg184
g0
(g29
g2
Ntp2931
Rp2932
(dp2933
g33
I01
sg34
F-0.9346563833923959
sg35
g184
sbsg192
g0
(g29
g2
Ntp2934
Rp2935
(dp2936
g33
I01
sg34
F0.3946730278158663
sg35
g192
sbsg196
g0
(g29
g2
Ntp2937
Rp2938
(dp2939
g33
I01
sg34
F1.5692969323926516
sg35
g196
sbssg208
(dp2940
I0
g0
(g210
g2
Ntp2941
Rp2942
(dp2943
g214
g215
sg216
F0.038251037725708356
sg217
F1.0
sg35
I0
sg218
g219
sbsI21
g0
(g210
g2
Ntp2944
Rp2945
(dp2946
g214
g215
sg216
F0.8197313419140935
sg217
F1.0
sg35
I21
sg218
g219
sbssg35
I131
sg223
I0
sbsI101
g1425
sI143
g0
(g22
g2
Ntp2947
Rp2948
(dp2949
g26
(dp2950
g533
g0
(g29
g2
Ntp2951
Rp2952
(dp2953
g33
I01
sg34
F2.3369693707296872
sg35
g533
sbsg28
g0
(g29
g2
Ntp2954
Rp2955
(dp2956
g33
I01
sg34
F-1.8028603174067552
sg35
g28
sbsg40
g0
(g29
g2
Ntp2957
Rp2958
(dp2959
g33
I01
sg34
F3.1854875086828947
sg35
g40
sbsg44
g0
(g29
g2
Ntp2960
Rp2961
(dp2962
g33
I01
sg34
F-0.507459462985174
sg35
g44
sbsg48
g0
(g29
g2
Ntp2963
Rp2964
(dp2965
g33
I01
sg34
F-0.20146307290975754
sg35
g48
sbsg100
g0
(g29
g2
Ntp2966
Rp2967
(dp2968
g33
I01
sg34
F2.2838634480525664
sg35
g100
sbsg56
g0
(g29
g2
Ntp2969
Rp2970
(dp2971
g33
I01
sg34
F-0.35864300026807283
sg35
g56
sbsg68
g0
(g29
g2
Ntp2972
Rp2973
(dp2974
g33
I01
sg34
F0.7014866064896277
sg35
g68
sbsg84
g0
(g29
g2
Ntp2975
Rp2976
(dp2977
g33
I01
sg34
F0.233490735431794
sg35
g84
sbsg92
g0
(g29
g2
Ntp2978
Rp2979
(dp2980
g33
I01
sg34
F-1.1161681467444629
sg35
g92
sbsg108
g0
(g29
g2
Ntp2981
Rp2982
(dp2983
g33
I01
sg34
F-1.3658981490157034
sg35
g108
sbsg112
g0
(g29
g2
Ntp2984
Rp2985
(dp2986
g33
I01
sg34
F-0.46520680546350296
sg35
g112
sbsg120
g0
(g29
g2
Ntp2987
Rp2988
(dp2989
g33
I01
sg34
F1.4234628119172827
sg35
g120
sbsg294
g0
(g29
g2
Ntp2990
Rp2991
(dp2992
g33
I00
sg34
F-1.9204460095409015
sg35
g294
sbsg140
g0
(g29
g2
Ntp2993
Rp2994
(dp2995
g33
I01
sg34
F-1.0291890076667845
sg35
g140
sbsg152
g0
(g29
g2
Ntp2996
Rp2997
(dp2998
g33
I01
sg34
F0.6506355978156126
sg35
g152
sbsg156
g0
(g29
g2
Ntp2999
Rp3000
(dp3001
g33
I01
sg34
F-0.5050086264716434
sg35
g156
sbsg124
g0
(g29
g2
Ntp3002
Rp3003
(dp3004
g33
I01
sg34
F0.7398941181012245
sg35
g124
sbsg168
g0
(g29
g2
Ntp3005
Rp3006
(dp3007
g33
I01
sg34
F1.6279338666769294
sg35
g168
sbsg172
g0
(g29
g2
Ntp3008
Rp3009
(dp3010
g33
I01
sg34
F0.7087389727616404
sg35
g172
sbsg180
g0
(g29
g2
Ntp3011
Rp3012
(dp3013
g33
I01
sg34
F-2.0422658418534807
sg35
g180
sbsg184
g0
(g29
g2
Ntp3014
Rp3015
(dp3016
g33
I01
sg34
F-0.6373412899881891
sg35
g184
sbsg192
g0
(g29
g2
Ntp3017
Rp3018
(dp3019
g33
I01
sg34
F-0.19935954102259906
sg35
g192
sbsg196
g0
(g29
g2
Ntp3020
Rp3021
(dp3022
g33
I01
sg34
F2.0788189822872094
sg35
g196
sbssg208
(dp3023
I0
g0
(g210
g2
Ntp3024
Rp3025
(dp3026
g214
g215
sg216
F-0.2293095822931675
sg217
F1.0
sg35
I0
sg218
g219
sbsI21
g0
(g210
g2
Ntp3027
Rp3028
(dp3029
g214
g215
sg216
F0.42957580413110685
sg217
F1.0
sg35
I21
sg218
g219
sbsI23
g0
(g210
g2
Ntp3030
Rp3031
(dp3032
g214
g215
sg216
F-0.8720543511427559
sg217
F1.0
sg35
I23
sg218
g219
sbssg35
I143
sg223
I0
sbsI144
g0
(g22
g2
Ntp3033
Rp3034
(dp3035
g26
(dp3036
g533
g0
(g29
g2
Ntp3037
Rp3038
(dp3039
g33
I01
sg34
F1.5394836968745285
sg35
g533
sbsg28
g0
(g29
g2
Ntp3040
Rp3041
(dp3042
g33
I01
sg34
F-0.06634004701619678
sg35
g28
sbsg40
g0
(g29
g2
Ntp3043
Rp3044
(dp3045
g33
I01
sg34
F1.621189542115487
sg35
g40
sbsg44
g0
(g29
g2
Ntp3046
Rp3047
(dp3048
g33
I01
sg34
F0.7999258806937625
sg35
g44
sbsg48
g0
(g29
g2
Ntp3049
Rp3050
(dp3051
g33
I01
sg34
F0.285509469471909
sg35
g48
sbsg100
g0
(g29
g2
Ntp3052
Rp3053
(dp3054
g33
I01
sg34
F2.5372546919261945
sg35
g100
sbsg56
g0
(g29
g2
Ntp3055
Rp3056
(dp3057
g33
I01
sg34
F-2.280869886962086
sg35
g56
sbsg68
g0
(g29
g2
Ntp3058
Rp3059
(dp3060
g33
I01
sg34
F1.2370698589857554
sg35
g68
sbsg84
g0
(g29
g2
Ntp3061
Rp3062
(dp3063
g33
I01
sg34
F-1.488154058077344
sg35
g84
sbsg92
g0
(g29
g2
Ntp3064
Rp3065
(dp3066
g33
I01
sg34
F-2.2413038129020064
sg35
g92
sbsg108
g0
(g29
g2
Ntp3067
Rp3068
(dp3069
g33
I01
sg34
F1.584950488637999
sg35
g108
sbsg112
g0
(g29
g2
Ntp3070
Rp3071
(dp3072
g33
I01
sg34
F0.6020237335081249
sg35
g112
sbsg120
g0
(g29
g2
Ntp3073
Rp3074
(dp3075
g33
I01
sg34
F0.29007469491860804
sg35
g120
sbsg294
g0
(g29
g2
Ntp3076
Rp3077
(dp3078
g33
I00
sg34
F-1.6786380982920746
sg35
g294
sbsg140
g0
(g29
g2
Ntp3079
Rp3080
(dp3081
g33
I01
sg34
F-1.0291890076667845
sg35
g140
sbsg152
g0
(g29
g2
Ntp3082
Rp3083
(dp3084
g33
I01
sg34
F0.8560146774339339
sg35
g152
sbsg156
g0
(g29
g2
Ntp3085
Rp3086
(dp3087
g33
I01
sg34
F0.47858991931704215
sg35
g156
sbsg124
g0
(g29
g2
Ntp3088
Rp3089
(dp3090
g33
I01
sg34
F-2.4448469657827787
sg35
g124
sbsg168
g0
(g29
g2
Ntp3091
Rp3092
(dp3093
g33
I01
sg34
F1.4998934300469284
sg35
g168
sbsg172
g0
(g29
g2
Ntp3094
Rp3095
(dp3096
g33
I01
sg34
F0.2244298923773116
sg35
g172
sbsg180
g0
(g29
g2
Ntp3097
Rp3098
(dp3099
g33
I01
sg34
F-1.8552670816708825
sg35
g180
sbsg184
g0
(g29
g2
Ntp3100
Rp3101
(dp3102
g33
I01
sg34
F0.6499760849093471
sg35
g184
sbsg192
g0
(g29
g2
Ntp3103
Rp3104
(dp3105
g33
I01
sg34
F0.19651772709136256
sg35
g192
sbsg196
g0
(g29
g2
Ntp3106
Rp3107
(dp3108
g33
I01
sg34
F2.1781128460935735
sg35
g196
sbssg208
(dp3109
I0
g0
(g210
g2
Ntp3110
Rp3111
(dp3112
g214
g215
sg216
F-0.6096069629428529
sg217
F1.0
sg35
I0
sg218
g219
sbsI21
g0
(g210
g2
Ntp3113
Rp3114
(dp3115
g214
g215
sg216
F0.43045503827812304
sg217
F1.0
sg35
I21
sg218
g219
sbsI23
g0
(g210
g2
Ntp3116
Rp3117
(dp3118
g214
g215
sg216
F-0.8680976978644289
sg217
F1.0
sg35
I23
sg218
g219
sbssg35
I144
sg223
I0
sbsI145
g0
(g22
g2
Ntp3119
Rp3120
(dp3121
g26
(dp3122
g533
g0
(g29
g2
Ntp3123
Rp3124
(dp3125
g33
I01
sg34
F1.618618051032422
sg35
g533
sbsg28
g0
(g29
g2
Ntp3126
Rp3127
(dp3128
g33
I01
sg34
F-2.431161845674902
sg35
g28
sbsg40
g0
(g29
g2
Ntp3129
Rp3130
(dp3131
g33
I01
sg34
F2.55467037140172
sg35
g40
sbsg44
g0
(g29
g2
Ntp3132
Rp3133
(dp3134
g33
I01
sg34
F-0.3696745242404239
sg35
g44
sbsg100
g0
(g29
g2
Ntp3135
Rp3136
(dp3137
g33
I01
sg34
F3.2293008661918456
sg35
g100
sbsg56
g0
(g29
g2
Ntp3138
Rp3139
(dp3140
g33
I01
sg34
F-0.7937614802464662
sg35
g56
sbsg68
g0
(g29
g2
Ntp3141
Rp3142
(dp3143
g33
I01
sg34
F0.5319768625614186
sg35
g68
sbsg84
g0
(g29
g2
Ntp3144
Rp3145
(dp3146
g33
I01
sg34
F-0.7318476155541194
sg35
g84
sbsg92
g0
(g29
g2
Ntp3147
Rp3148
(dp3149
g33
I01
sg34
F-0.8809400891520778
sg35
g92
sbsg108
g0
(g29
g2
Ntp3150
Rp3151
(dp3152
g33
I01
sg34
F1.9728265542182757
sg35
g108
sbsg112
g0
(g29
g2
Ntp3153
Rp3154
(dp3155
g33
I01
sg34
F-0.9412533042698357
sg35
g112
sbsg120
g0
(g29
g2
Ntp3156
Rp3157
(dp3158
g33
I01
sg34
F1.3172941499217323
sg35
g120
sbsg294
g0
(g29
g2
Ntp3159
Rp3160
(dp3161
g33
I00
sg34
F-0.7610187356963856
sg35
g294
sbsg140
g0
(g29
g2
Ntp3162
Rp3163
(dp3164
g33
I01
sg34
F-0.95517244157947
sg35
g140
sbsg152
g0
(g29
g2
Ntp3165
Rp3166
(dp3167
g33
I01
sg34
F-1.1330500472164744
sg35
g152
sbsg156
g0
(g29
g2
Ntp3168
Rp3169
(dp3170
g33
I01
sg34
F1.0124894750769922
sg35
g156
sbsg124
g0
(g29
g2
Ntp3171
Rp3172
(dp3173
g33
I01
sg34
F-2.557805921168906
sg35
g124
sbsg168
g0
(g29
g2
Ntp3174
Rp3175
(dp3176
g33
I01
sg34
F1.364450650344283
sg35
g168
sbsg172
g0
(g29
g2
Ntp3177
Rp3178
(dp3179
g33
I01
sg34
F0.6374590311142915
sg35
g172
sbsg180
g0
(g29
g2
Ntp3180
Rp3181
(dp3182
g33
I01
sg34
F-1.7066319339331386
sg35
g180
sbsg184
g0
(g29
g2
Ntp3183
Rp3184
(dp3185
g33
I01
sg34
F-0.28717494200673654
sg35
g184
sbsg192
g0
(g29
g2
Ntp3186
Rp3187
(dp3188
g33
I01
sg34
F-0.2355334575327331
sg35
g192
sbsg196
g0
(g29
g2
Ntp3189
Rp3190
(dp3191
g33
I01
sg34
F2.0569037549987486
sg35
g196
sbs(I-23
I21
tp3192
g0
(g29
g2
Ntp3193
Rp3194
(dp3195
g33
I01
sg34
F-1.2247582136399475
sg35
g3192
sbssg208
(dp3196
I0
g0
(g210
g2
Ntp3197
Rp3198
(dp3199
g214
g215
sg216
F1.1914599395147676
sg217
F1.0
sg35
I0
sg218
g219
sbsI21
g0
(g210
g2
Ntp3200
Rp3201
(dp3202
g214
g215
sg216
F0.5126239183764911
sg217
F1.0
sg35
I21
sg218
g219
sbsI23
g0
(g210
g2
Ntp3203
Rp3204
(dp3205
g214
g215
sg216
F-0.8720543511427559
sg217
F1.0
sg35
I23
sg218
g219
sbssg35
I145
sg223
I0
sbsI146
g0
(g22
g2
Ntp3206
Rp3207
(dp3208
g26
(dp3209
g28
g0
(g29
g2
Ntp3210
Rp3211
(dp3212
g33
I01
sg34
F0.9329549608024091
sg35
g28
sbsg40
g0
(g29
g2
Ntp3213
Rp3214
(dp3215
g33
I01
sg34
F2.7635885681508854
sg35
g40
sbsg44
g0
(g29
g2
Ntp3216
Rp3217
(dp3218
g33
I01
sg34
F-1.2331106605458233
sg35
g44
sbsg48
g0
(g29
g2
Ntp3219
Rp3220
(dp3221
g33
I01
sg34
F-0.2190611106712891
sg35
g48
sbsg100
g0
(g29
g2
Ntp3222
Rp3223
(dp3224
g33
I01
sg34
F3.0715359835463882
sg35
g100
sbsg56
g0
(g29
g2
Ntp3225
Rp3226
(dp3227
g33
I01
sg34
F-1.7009688455910208
sg35
g56
sbsg68
g0
(g29
g2
Ntp3228
Rp3229
(dp3230
g33
I01
sg34
F0.7714398903758644
sg35
g68
sbsg84
g0
(g29
g2
Ntp3231
Rp3232
(dp3233
g33
I01
sg34
F-0.815416489977011
sg35
g84
sbsg92
g0
(g29
g2
Ntp3234
Rp3235
(dp3236
g33
I01
sg34
F0.41509467534190264
sg35
g92
sbsg108
g0
(g29
g2
Ntp3237
Rp3238
(dp3239
g33
I01
sg34
F1.6315996587892585
sg35
g108
sbsg112
g0
(g29
g2
Ntp3240
Rp3241
(dp3242
g33
I01
sg34
F-0.3139916998496732
sg35
g112
sbsg120
g0
(g29
g2
Ntp3243
Rp3244
(dp3245
g33
I01
sg34
F0.036770268152603924
sg35
g120
sbsg294
g0
(g29
g2
Ntp3246
Rp3247
(dp3248
g33
I00
sg34
F-1.3433160914071733
sg35
g294
sbsg140
g0
(g29
g2
Ntp3249
Rp3250
(dp3251
g33
I01
sg34
F0.2567846807856779
sg35
g140
sbsg152
g0
(g29
g2
Ntp3252
Rp3253
(dp3254
g33
I01
sg34
F-1.1631268878799963
sg35
g152
sbsg156
g0
(g29
g2
Ntp3255
Rp3256
(dp3257
g33
I01
sg34
F0.3582249488391209
sg35
g156
sbsg124
g0
(g29
g2
Ntp3258
Rp3259
(dp3260
g33
I01
sg34
F-2.2924376821638455
sg35
g124
sbsg168
g0
(g29
g2
Ntp3261
Rp3262
(dp3263
g33
I01
sg34
F1.0329304568381517
sg35
g168
sbsg172
g0
(g29
g2
Ntp3264
Rp3265
(dp3266
g33
I01
sg34
F1.743182100659887
sg35
g172
sbsg180
g0
(g29
g2
Ntp3267
Rp3268
(dp3269
g33
I01
sg34
F-2.6769620805081
sg35
g180
sbsg184
g0
(g29
g2
Ntp3270
Rp3271
(dp3272
g33
I01
sg34
F-0.9346563833923959
sg35
g184
sbsg192
g0
(g29
g2
Ntp3273
Rp3274
(dp3275
g33
I01
sg34
F-0.974054556142066
sg35
g192
sbsg196
g0
(g29
g2
Ntp3276
Rp3277
(dp3278
g33
I01
sg34
F1.0446518703543806
sg35
g196
sbssg208
(dp3279
I0
g0
(g210
g2
Ntp3280
Rp3281
(dp3282
g214
g215
sg216
F-0.2372545361523789
sg217
F1.0
sg35
I0
sg218
g219
sbsI21
g0
(g210
g2
Ntp3283
Rp3284
(dp3285
g214
g215
sg216
F1.3016809608744915
sg217
F1.0
sg35
I21
sg218
g219
sbssg35
I146
sg223
I0
sbsI147
g0
(g22
g2
Ntp3286
Rp3287
(dp3288
g26
(dp3289
g533
g0
(g29
g2
Ntp3290
Rp3291
(dp3292
g33
I01
sg34
F2.3964833044942067
sg35
g533
sbsg28
g0
(g29
g2
Ntp3293
Rp3294
(dp3295
g33
I01
sg34
F1.4277807558506876
sg35
g28
sbsg40
g0
(g29
g2
Ntp3296
Rp3297
(dp3298
g33
I01
sg34
F2.2509439319376776
sg35
g40
sbsg44
g0
(g29
g2
Ntp3299
Rp3300
(dp3301
g33
I01
sg34
F-1.0789869628646431
sg35
g44
sbsg48
g0
(g29
g2
Ntp3302
Rp3303
(dp3304
g33
I01
sg34
F-0.012701543008431968
sg35
g48
sbsg100
g0
(g29
g2
Ntp3305
Rp3306
(dp3307
g33
I01
sg34
F1.2846984747714851
sg35
g100
sbsg56
g0
(g29
g2
Ntp3308
Rp3309
(dp3310
g33
I01
sg34
F-1.487791977118209
sg35
g56
sbsg68
g0
(g29
g2
Ntp3311
Rp3312
(dp3313
g33
I01
sg34
F-0.3973527204349053
sg35
g68
sbsg84
g0
(g29
g2
Ntp3314
Rp3315
(dp3316
g33
I01
sg34
F-0.2947646704210421
sg35
g84
sbsg92
g0
(g29
g2
Ntp3317
Rp3318
(dp3319
g33
I01
sg34
F-0.06887893761329661
sg35
g92
sbsg108
g0
(g29
g2
Ntp3320
Rp3321
(dp3322
g33
I01
sg34
F0.9412745397824922
sg35
g108
sbsg112
g0
(g29
g2
Ntp3323
Rp3324
(dp3325
g33
I01
sg34
F-1.1337404227903543
sg35
g112
sbsg120
g0
(g29
g2
Ntp3326
Rp3327
(dp3328
g33
I01
sg34
F0.8312770570918662
sg35
g120
sbsg294
g0
(g29
g2
Ntp3329
Rp3330
(dp3331
g33
I00
sg34
F-2.111582423269524
sg35
g294
sbsg140
g0
(g29
g2
Ntp3332
Rp3333
(dp3334
g33
I01
sg34
F-1.9853141755727903
sg35
g140
sbsg152
g0
(g29
g2
Ntp3335
Rp3336
(dp3337
g33
I01
sg34
F-0.5065175109062878
sg35
g152
sbsg156
g0
(g29
g2
Ntp3338
Rp3339
(dp3340
g33
I01
sg34
F0.022667363514330463
sg35
g156
sbsg124
g0
(g29
g2
Ntp3341
Rp3342
(dp3343
g33
I01
sg34
F-2.3682695516778205
sg35
g124
sbsg168
g0
(g29
g2
Ntp3344
Rp3345
(dp3346
g33
I01
sg34
F1.696352604799935
sg35
g168
sbsg172
g0
(g29
g2
Ntp3347
Rp3348
(dp3349
g33
I01
sg34
F0.3244189231625142
sg35
g172
sbsg180
g0
(g29
g2
Ntp3350
Rp3351
(dp3352
g33
I01
sg34
F-2.603133917833432
sg35
g180
sbsg184
g0
(g29
g2
Ntp3353
Rp3354
(dp3355
g33
I01
sg34
F-0.6598498947072154
sg35
g184
sbsg192
g0
(g29
g2
Ntp3356
Rp3357
(dp3358
g33
I01
sg34
F-0.05764188501283865
sg35
g192
sbsg196
g0
(g29
g2
Ntp3359
Rp3360
(dp3361
g33
I01
sg34
F2.5230708478019466
sg35
g196
sbssg208
(dp3362
I0
g0
(g210
g2
Ntp3363
Rp3364
(dp3365
g214
g215
sg216
F-0.22081436576802665
sg217
F1.0
sg35
I0
sg218
g219
sbsI21
g0
(g210
g2
Ntp3366
Rp3367
(dp3368
g214
g215
sg216
F0.6473057186308622
sg217
F1.0
sg35
I21
sg218
g219
sbsI23
g0
(g210
g2
Ntp3369
Rp3370
(dp3371
g214
g215
sg216
F-0.8676515278057005
sg217
F1.0
sg35
I23
sg218
g219
sbssg35
I147
sg223
I0
sbssg223
F18.8
sbsI3
g0
(g1872
g2
Ntp3372
Rp3373
(dp3374
g1876
F0.9699450333725952
sg35
I3
sg1877
I0
sg1878
I2
sg1879
(lp3375
I-1000
aF17.2
aF17.4
aF-139.1
aF-140.1
aF-139.0
aF17.2
aF16.8
aF17.0
asg1881
g0
(g22
g2
Ntp3376
Rp3377
(dp3378
g26
(dp3379
g28
g0
(g29
g2
Ntp3380
Rp3381
(dp3382
g33
I01
sg34
F0.47212437544837516
sg35
g28
sbsg40
g0
(g29
g2
Ntp3383
Rp3384
(dp3385
g33
I01
sg34
F-0.6413140232899981
sg35
g40
sbsg44
g0
(g29
g2
Ntp3386
Rp3387
(dp3388
g33
I01
sg34
F-0.6845053653571127
sg35
g44
sbsg48
g0
(g29
g2
Ntp3389
Rp3390
(dp3391
g33
I01
sg34
F-1.948724846634585
sg35
g48
sbsg100
g0
(g29
g2
Ntp3392
Rp3393
(dp3394
g33
I01
sg34
F1.9352083580801287
sg35
g100
sbsg56
g0
(g29
g2
Ntp3395
Rp3396
(dp3397
g33
I01
sg34
F1.140507636516471
sg35
g56
sbsg68
g0
(g29
g2
Ntp3398
Rp3399
(dp3400
g33
I01
sg34
F0.37849345395130474
sg35
g68
sbsg84
g0
(g29
g2
Ntp3401
Rp3402
(dp3403
g33
I01
sg34
F-0.10269366665635075
sg35
g84
sbsg92
g0
(g29
g2
Ntp3404
Rp3405
(dp3406
g33
I01
sg34
F-1.4856381780392824
sg35
g92
sbsg108
g0
(g29
g2
Ntp3407
Rp3408
(dp3409
g33
I01
sg34
F1.2688979915258671
sg35
g108
sbsg112
g0
(g29
g2
Ntp3410
Rp3411
(dp3412
g33
I01
sg34
F-0.6918103580572407
sg35
g112
sbsg120
g0
(g29
g2
Ntp3413
Rp3414
(dp3415
g33
I01
sg34
F0.5765548980952481
sg35
g120
sbsg124
g0
(g29
g2
Ntp3416
Rp3417
(dp3418
g33
I01
sg34
F-0.5971430602263201
sg35
g124
sbsg140
g0
(g29
g2
Ntp3419
Rp3420
(dp3421
g33
I01
sg34
F0.1865107974806714
sg35
g140
sbsg152
g0
(g29
g2
Ntp3422
Rp3423
(dp3424
g33
I01
sg34
F0.4482623701436268
sg35
g152
sbsg156
g0
(g29
g2
Ntp3425
Rp3426
(dp3427
g33
I01
sg34
F-1.3665749044764075
sg35
g156
sbsg168
g0
(g29
g2
Ntp3428
Rp3429
(dp3430
g33
I01
sg34
F-1.0648044628744207
sg35
g168
sbsg172
g0
(g29
g2
Ntp3431
Rp3432
(dp3433
g33
I01
sg34
F0.018692636536094
sg35
g172
sbsg180
g0
(g29
g2
Ntp3434
Rp3435
(dp3436
g33
I01
sg34
F-2.0047409271119787
sg35
g180
sbsg184
g0
(g29
g2
Ntp3437
Rp3438
(dp3439
g33
I01
sg34
F0.04529985032715825
sg35
g184
sbsg192
g0
(g29
g2
Ntp3440
Rp3441
(dp3442
g33
I01
sg34
F-1.2100404814023076
sg35
g192
sbsg196
g0
(g29
g2
Ntp3443
Rp3444
(dp3445
g33
I01
sg34
F-0.026067898772807907
sg35
g196
sbs(I-8
I0
tp3446
g0
(g29
g2
Ntp3447
Rp3448
(dp3449
g33
I01
sg34
F-0.6089067376509008
sg35
g3446
sbssg208
(dp3450
I0
g0
(g210
g2
Ntp3451
Rp3452
(dp3453
g214
g215
sg216
F0.27671976325413655
sg217
F1.0
sg35
I0
sg218
g219
sbssg35
I89
sg223
I0
sbsg2080
(dp3454
I137
g0
(g22
g2
Ntp3455
Rp3456
(dp3457
g26
(dp3458
g28
g0
(g29
g2
Ntp3459
Rp3460
(dp3461
g33
I01
sg34
F0.6748747442721307
sg35
g28
sbsg40
g0
(g29
g2
Ntp3462
Rp3463
(dp3464
g33
I01
sg34
F0.019133920469333987
sg35
g40
sbsg44
g0
(g29
g2
Ntp3465
Rp3466
(dp3467
g33
I01
sg34
F-0.44891008702744206
sg35
g44
sbsg48
g0
(g29
g2
Ntp3468
Rp3469
(dp3470
g33
I01
sg34
F-1.4130394387159486
sg35
g48
sbsg100
g0
(g29
g2
Ntp3471
Rp3472
(dp3473
g33
I01
sg34
F2.172418936373393
sg35
g100
sbsg56
g0
(g29
g2
Ntp3474
Rp3475
(dp3476
g33
I01
sg34
F1.4558438300367016
sg35
g56
sbsg68
g0
(g29
g2
Ntp3477
Rp3478
(dp3479
g33
I01
sg34
F0.8211808840369701
sg35
g68
sbsg84
g0
(g29
g2
Ntp3480
Rp3481
(dp3482
g33
I01
sg34
F-0.015193086097783179
sg35
g84
sbsg92
g0
(g29
g2
Ntp3483
Rp3484
(dp3485
g33
I01
sg34
F-1.8789176763552011
sg35
g92
sbsg108
g0
(g29
g2
Ntp3486
Rp3487
(dp3488
g33
I01
sg34
F1.0347677590532
sg35
g108
sbsg112
g0
(g29
g2
Ntp3489
Rp3490
(dp3491
g33
I01
sg34
F-1.9759733183188932
sg35
g112
sbsg120
g0
(g29
g2
Ntp3492
Rp3493
(dp3494
g33
I01
sg34
F1.7721887697064633
sg35
g120
sbsg124
g0
(g29
g2
Ntp3495
Rp3496
(dp3497
g33
I01
sg34
F0.7596685736529238
sg35
g124
sbsg140
g0
(g29
g2
Ntp3498
Rp3499
(dp3500
g33
I01
sg34
F-0.012054685871373177
sg35
g140
sbsg152
g0
(g29
g2
Ntp3501
Rp3502
(dp3503
g33
I01
sg34
F-0.640787762019076
sg35
g152
sbsg156
g0
(g29
g2
Ntp3504
Rp3505
(dp3506
g33
I01
sg34
F-1.1105436399634403
sg35
g156
sbsg168
g0
(g29
g2
Ntp3507
Rp3508
(dp3509
g33
I01
sg34
F-1.3194280327877075
sg35
g168
sbsg172
g0
(g29
g2
Ntp3510
Rp3511
(dp3512
g33
I01
sg34
F-0.4200359279030182
sg35
g172
sbsg180
g0
(g29
g2
Ntp3513
Rp3514
(dp3515
g33
I01
sg34
F-1.4191851581209334
sg35
g180
sbsg184
g0
(g29
g2
Ntp3516
Rp3517
(dp3518
g33
I01
sg34
F-0.622856641506694
sg35
g184
sbsg192
g0
(g29
g2
Ntp3519
Rp3520
(dp3521
g33
I01
sg34
F-1.8119655348518735
sg35
g192
sbsg196
g0
(g29
g2
Ntp3522
Rp3523
(dp3524
g33
I01
sg34
F0.4652764516154088
sg35
g196
sbsg3446
g0
(g29
g2
Ntp3525
Rp3526
(dp3527
g33
I01
sg34
F0.3013805668673115
sg35
g3446
sbssg208
(dp3528
I0
g0
(g210
g2
Ntp3529
Rp3530
(dp3531
g214
g215
sg216
F-0.015589863524829717
sg217
F1.0
sg35
I0
sg218
g219
sbssg35
I137
sg223
I0
sbsI138
g0
(g22
g2
Ntp3532
Rp3533
(dp3534
g26
(dp3535
g28
g0
(g29
g2
Ntp3536
Rp3537
(dp3538
g33
I01
sg34
F0.8535728630677326
sg35
g28
sbsg40
g0
(g29
g2
Ntp3539
Rp3540
(dp3541
g33
I01
sg34
F-0.6413140232899981
sg35
g40
sbsg44
g0
(g29
g2
Ntp3542
Rp3543
(dp3544
g33
I01
sg34
F-0.3802568799284671
sg35
g44
sbsg48
g0
(g29
g2
Ntp3545
Rp3546
(dp3547
g33
I01
sg34
F-2.0941003095157544
sg35
g48
sbsg100
g0
(g29
g2
Ntp3548
Rp3549
(dp3550
g33
I01
sg34
F1.8939931341579008
sg35
g100
sbsg56
g0
(g29
g2
Ntp3551
Rp3552
(dp3553
g33
I01
sg34
F1.2378220047086543
sg35
g56
sbsg68
g0
(g29
g2
Ntp3554
Rp3555
(dp3556
g33
I01
sg34
F0.967465645127621
sg35
g68
sbsg84
g0
(g29
g2
Ntp3557
Rp3558
(dp3559
g33
I01
sg34
F-0.44754938286259366
sg35
g84
sbsg92
g0
(g29
g2
Ntp3560
Rp3561
(dp3562
g33
I01
sg34
F-1.9237840168753024
sg35
g92
sbsg108
g0
(g29
g2
Ntp3563
Rp3564
(dp3565
g33
I01
sg34
F1.2688979915258671
sg35
g108
sbsg112
g0
(g29
g2
Ntp3566
Rp3567
(dp3568
g33
I01
sg34
F-0.15850571839913824
sg35
g112
sbsg120
g0
(g29
g2
Ntp3569
Rp3570
(dp3571
g33
I01
sg34
F0.5765548980952481
sg35
g120
sbsg124
g0
(g29
g2
Ntp3572
Rp3573
(dp3574
g33
I01
sg34
F-0.5971430602263201
sg35
g124
sbsg140
g0
(g29
g2
Ntp3575
Rp3576
(dp3577
g33
I01
sg34
F1.1491757639643605
sg35
g140
sbsg152
g0
(g29
g2
Ntp3578
Rp3579
(dp3580
g33
I01
sg34
F-0.8293735929628232
sg35
g152
sbsg156
g0
(g29
g2
Ntp3581
Rp3582
(dp3583
g33
I01
sg34
F-1.3665749044764075
sg35
g156
sbsg168
g0
(g29
g2
Ntp3584
Rp3585
(dp3586
g33
I01
sg34
F0.28213765884976566
sg35
g168
sbsg172
g0
(g29
g2
Ntp3587
Rp3588
(dp3589
g33
I01
sg34
F0.018692636536094
sg35
g172
sbsg180
g0
(g29
g2
Ntp3590
Rp3591
(dp3592
g33
I01
sg34
F-2.5005831055761374
sg35
g180
sbsg184
g0
(g29
g2
Ntp3593
Rp3594
(dp3595
g33
I01
sg34
F1.2114095260994693
sg35
g184
sbsg192
g0
(g29
g2
Ntp3596
Rp3597
(dp3598
g33
I01
sg34
F-0.310986008990634
sg35
g192
sbsg196
g0
(g29
g2
Ntp3599
Rp3600
(dp3601
g33
I01
sg34
F0.8935917125794169
sg35
g196
sbsg3446
g0
(g29
g2
Ntp3602
Rp3603
(dp3604
g33
I01
sg34
F-0.6089067376509008
sg35
g3446
sbssg208
(dp3605
I0
g0
(g210
g2
Ntp3606
Rp3607
(dp3608
g214
g215
sg216
F-0.6766843689753459
sg217
F1.0
sg35
I0
sg218
g219
sbssg35
I138
sg223
I0
sbsI139
g0
(g22
g2
Ntp3609
Rp3610
(dp3611
g26
(dp3612
g28
g0
(g29
g2
Ntp3613
Rp3614
(dp3615
g33
I01
sg34
F0.6438204602971691
sg35
g28
sbsg40
g0
(g29
g2
Ntp3616
Rp3617
(dp3618
g33
I01
sg34
F-0.5218348078350066
sg35
g40
sbsg44
g0
(g29
g2
Ntp3619
Rp3620
(dp3621
g33
I01
sg34
F0.7744805354421683
sg35
g44
sbsg48
g0
(g29
g2
Ntp3622
Rp3623
(dp3624
g33
I01
sg34
F-2.317420904544466
sg35
g48
sbsg100
g0
(g29
g2
Ntp3625
Rp3626
(dp3627
g33
I01
sg34
F2.419147014374821
sg35
g100
sbsg56
g0
(g29
g2
Ntp3628
Rp3629
(dp3630
g33
I01
sg34
F1.140507636516471
sg35
g56
sbsg68
g0
(g29
g2
Ntp3631
Rp3632
(dp3633
g33
I01
sg34
F0.7381297652870566
sg35
g68
sbsg84
g0
(g29
g2
Ntp3634
Rp3635
(dp3636
g33
I01
sg34
F-0.5992230771173445
sg35
g84
sbsg108
g0
(g29
g2
Ntp3637
Rp3638
(dp3639
g33
I01
sg34
F1.8606084819876774
sg35
g108
sbsg112
g0
(g29
g2
Ntp3640
Rp3641
(dp3642
g33
I01
sg34
F0.7444449804277414
sg35
g112
sbsg120
g0
(g29
g2
Ntp3643
Rp3644
(dp3645
g33
I01
sg34
F0.35937506666741387
sg35
g120
sbsg124
g0
(g29
g2
Ntp3646
Rp3647
(dp3648
g33
I01
sg34
F-0.24794259823160897
sg35
g124
sbsg140
g0
(g29
g2
Ntp3649
Rp3650
(dp3651
g33
I01
sg34
F-0.35575693095728916
sg35
g140
sbsg152
g0
(g29
g2
Ntp3652
Rp3653
(dp3654
g33
I01
sg34
F-0.10513803824397727
sg35
g152
sbsg156
g0
(g29
g2
Ntp3655
Rp3656
(dp3657
g33
I01
sg34
F-0.40182908250642735
sg35
g156
sbsg168
g0
(g29
g2
Ntp3658
Rp3659
(dp3660
g33
I01
sg34
F-0.4920324227559467
sg35
g168
sbsg172
g0
(g29
g2
Ntp3661
Rp3662
(dp3663
g33
I01
sg34
F0.565109553449683
sg35
g172
sbsg180
g0
(g29
g2
Ntp3664
Rp3665
(dp3666
g33
I01
sg34
F-2.0047409271119787
sg35
g180
sbsg184
g0
(g29
g2
Ntp3667
Rp3668
(dp3669
g33
I01
sg34
F0.33923653309868895
sg35
g184
sbsg192
g0
(g29
g2
Ntp3670
Rp3671
(dp3672
g33
I01
sg34
F-1.0278675330490068
sg35
g192
sbsg196
g0
(g29
g2
Ntp3673
Rp3674
(dp3675
g33
I01
sg34
F0.2059286572416698
sg35
g196
sbsg3446
g0
(g29
g2
Ntp3676
Rp3677
(dp3678
g33
I01
sg34
F-0.4443069173340679
sg35
g3446
sbssg208
(dp3679
I0
g0
(g210
g2
Ntp3680
Rp3681
(dp3682
g214
g215
sg216
F0.895128925981054
sg217
F1.0
sg35
I0
sg218
g219
sbssg35
I139
sg223
I0
sbsI140
g0
(g22
g2
Ntp3683
Rp3684
(dp3685
g26
(dp3686
g28
g0
(g29
g2
Ntp3687
Rp3688
(dp3689
g33
I01
sg34
F0.3255940616138347
sg35
g28
sbs(I39
I0
tp3690
g0
(g29
g2
Ntp3691
Rp3692
(dp3693
g33
I01
sg34
F-0.09026130632185142
sg35
g3690
sbsg40
g0
(g29
g2
Ntp3694
Rp3695
(dp3696
g33
I01
sg34
F0.1320397039675567
sg35
g40
sbsg44
g0
(g29
g2
Ntp3697
Rp3698
(dp3699
g33
I01
sg34
F-0.05432194924011202
sg35
g44
sbsg48
g0
(g29
g2
Ntp3700
Rp3701
(dp3702
g33
I01
sg34
F-1.8322992683145898
sg35
g48
sbsg100
g0
(g29
g2
Ntp3703
Rp3704
(dp3705
g33
I01
sg34
F1.2283736294897598
sg35
g100
sbsg56
g0
(g29
g2
Ntp3706
Rp3707
(dp3708
g33
I01
sg34
F1.1677096891031247
sg35
g56
sbsg68
g0
(g29
g2
Ntp3709
Rp3710
(dp3711
g33
I01
sg34
F0.53459599037461
sg35
g68
sbsg84
g0
(g29
g2
Ntp3712
Rp3713
(dp3714
g33
I01
sg34
F0.0834693015976221
sg35
g84
sbsg92
g0
(g29
g2
Ntp3715
Rp3716
(dp3717
g33
I01
sg34
F-0.7200302537519152
sg35
g92
sbsg108
g0
(g29
g2
Ntp3718
Rp3719
(dp3720
g33
I01
sg34
F1.3714966172332632
sg35
g108
sbsg112
g0
(g29
g2
Ntp3721
Rp3722
(dp3723
g33
I01
sg34
F-1.5407811032420455
sg35
g112
sbsg120
g0
(g29
g2
Ntp3724
Rp3725
(dp3726
g33
I01
sg34
F0.29615098177263777
sg35
g120
sbsg124
g0
(g29
g2
Ntp3727
Rp3728
(dp3729
g33
I01
sg34
F-2.5448560545985233
sg35
g124
sbsg140
g0
(g29
g2
Ntp3730
Rp3731
(dp3732
g33
I01
sg34
F0.05492782139539343
sg35
g140
sbsg152
g0
(g29
g2
Ntp3733
Rp3734
(dp3735
g33
I01
sg34
F-0.45341405817395447
sg35
g152
sbsg156
g0
(g29
g2
Ntp3736
Rp3737
(dp3738
g33
I01
sg34
F-0.7733615228113696
sg35
g156
sbsg168
g0
(g29
g2
Ntp3739
Rp3740
(dp3741
g33
I01
sg34
F-1.34552497152656
sg35
g168
sbsg172
g0
(g29
g2
Ntp3742
Rp3743
(dp3744
g33
I01
sg34
F0.5263240751160358
sg35
g172
sbsg180
g0
(g29
g2
Ntp3745
Rp3746
(dp3747
g33
I01
sg34
F-1.7774374775230042
sg35
g180
sbsg184
g0
(g29
g2
Ntp3748
Rp3749
(dp3750
g33
I01
sg34
F-0.39524550474749576
sg35
g184
sbsg192
g0
(g29
g2
Ntp3751
Rp3752
(dp3753
g33
I01
sg34
F-0.23263202683637896
sg35
g192
sbs(I-39
I39
tp3754
g0
(g29
g2
Ntp3755
Rp3756
(dp3757
g33
I01
sg34
F1.2739976977006833
sg35
g3754
sbsg196
g0
(g29
g2
Ntp3758
Rp3759
(dp3760
g33
I00
sg34
F0.3017108655445666
sg35
g196
sbsg3446
g0
(g29
g2
Ntp3761
Rp3762
(dp3763
g33
I01
sg34
F-0.16816131543701518
sg35
g3446
sbssg208
(dp3764
I0
g0
(g210
g2
Ntp3765
Rp3766
(dp3767
g214
g215
sg216
F0.18482365553201036
sg217
F1.0
sg35
I0
sg218
g219
sbsI39
g0
(g210
g2
Ntp3768
Rp3769
(dp3770
g214
g215
sg216
F-0.4442259672763184
sg217
F1.0
sg35
I39
sg218
g219
sbssg35
I140
sg223
I0
sbsI141
g0
(g22
g2
Ntp3771
Rp3772
(dp3773
g26
(dp3774
g28
g0
(g29
g2
Ntp3775
Rp3776
(dp3777
g33
I00
sg34
F0.6408942483351744
sg35
g28
sbsg3690
g0
(g29
g2
Ntp3778
Rp3779
(dp3780
g33
I01
sg34
F0.6129336862315893
sg35
g3690
sbsg40
g0
(g29
g2
Ntp3781
Rp3782
(dp3783
g33
I01
sg34
F-0.46375657870386167
sg35
g40
sbsg44
g0
(g29
g2
Ntp3784
Rp3785
(dp3786
g33
I01
sg34
F-1.3672890886094335
sg35
g44
sbsg48
g0
(g29
g2
Ntp3787
Rp3788
(dp3789
g33
I01
sg34
F-0.4072100109037893
sg35
g48
sbsg100
g0
(g29
g2
Ntp3790
Rp3791
(dp3792
g33
I01
sg34
F2.0756270670841652
sg35
g100
sbsg56
g0
(g29
g2
Ntp3793
Rp3794
(dp3795
g33
I01
sg34
F0.9235260309915453
sg35
g56
sbsg68
g0
(g29
g2
Ntp3796
Rp3797
(dp3798
g33
I01
sg34
F0.9270672753478331
sg35
g68
sbsg84
g0
(g29
g2
Ntp3799
Rp3800
(dp3801
g33
I01
sg34
F-0.10269366665635075
sg35
g84
sbsg92
g0
(g29
g2
Ntp3802
Rp3803
(dp3804
g33
I01
sg34
F-1.576876982200839
sg35
g92
sbs(I-26
I0
tp3805
g0
(g29
g2
Ntp3806
Rp3807
(dp3808
g33
I01
sg34
F0.7395415192255703
sg35
g3805
sbsg108
g0
(g29
g2
Ntp3809
Rp3810
(dp3811
g33
I01
sg34
F1.6219020830449513
sg35
g108
sbsg112
g0
(g29
g2
Ntp3812
Rp3813
(dp3814
g33
I01
sg34
F-1.0840349851291948
sg35
g112
sbsg120
g0
(g29
g2
Ntp3815
Rp3816
(dp3817
g33
I01
sg34
F-1.2411865067976604
sg35
g120
sbsg124
g0
(g29
g2
Ntp3818
Rp3819
(dp3820
g33
I01
sg34
F-0.36274451410071573
sg35
g124
sbsg140
g0
(g29
g2
Ntp3821
Rp3822
(dp3823
g33
I01
sg34
F1.462230627150629
sg35
g140
sbsg152
g0
(g29
g2
Ntp3824
Rp3825
(dp3826
g33
I01
sg34
F0.5708608012648371
sg35
g152
sbsg156
g0
(g29
g2
Ntp3827
Rp3828
(dp3829
g33
I01
sg34
F-0.5411593281563375
sg35
g156
sbsg168
g0
(g29
g2
Ntp3830
Rp3831
(dp3832
g33
I01
sg34
F-1.3757820204810804
sg35
g168
sbsg172
g0
(g29
g2
Ntp3833
Rp3834
(dp3835
g33
I01
sg34
F0.018692636536094
sg35
g172
sbsg180
g0
(g29
g2
Ntp3836
Rp3837
(dp3838
g33
I01
sg34
F-0.7908916167151926
sg35
g180
sbsg184
g0
(g29
g2
Ntp3839
Rp3840
(dp3841
g33
I01
sg34
F0.12635921864509642
sg35
g184
sbsg192
g0
(g29
g2
Ntp3842
Rp3843
(dp3844
g33
I01
sg34
F-0.9218164730275418
sg35
g192
sbsg3754
g0
(g29
g2
Ntp3845
Rp3846
(dp3847
g33
I01
sg34
F0.35098323658890773
sg35
g3754
sbsg196
g0
(g29
g2
Ntp3848
Rp3849
(dp3850
g33
I00
sg34
F1.068169845043283
sg35
g196
sbsg3446
g0
(g29
g2
Ntp3851
Rp3852
(dp3853
g33
I01
sg34
F-0.46081326608380546
sg35
g3446
sbssg208
(dp3854
I0
g0
(g210
g2
Ntp3855
Rp3856
(dp3857
g214
g215
sg216
F0.27671976325413655
sg217
F1.0
sg35
I0
sg218
g219
sbsI39
g0
(g210
g2
Ntp3858
Rp3859
(dp3860
g214
g215
sg216
F-0.3145331525240828
sg217
F1.0
sg35
I39
sg218
g219
sbssg35
I141
sg223
I0
sbsI142
g0
(g22
g2
Ntp3861
Rp3862
(dp3863
g26
(dp3864
g28
g0
(g29
g2
Ntp3865
Rp3866
(dp3867
g33
I00
sg34
F-1.0851563364451713
sg35
g28
sbsg3690
g0
(g29
g2
Ntp3868
Rp3869
(dp3870
g33
I01
sg34
F0.13226789073576417
sg35
g3690
sbsg40
g0
(g29
g2
Ntp3871
Rp3872
(dp3873
g33
I01
sg34
F-0.6413140232899981
sg35
g40
sbsg44
g0
(g29
g2
Ntp3874
Rp3875
(dp3876
g33
I01
sg34
F-0.17789216894885929
sg35
g44
sbsg48
g0
(g29
g2
Ntp3877
Rp3878
(dp3879
g33
I01
sg34
F-1.5828364616546955
sg35
g48
sbsg100
g0
(g29
g2
Ntp3880
Rp3881
(dp3882
g33
I01
sg34
F1.664641164096457
sg35
g100
sbsg56
g0
(g29
g2
Ntp3883
Rp3884
(dp3885
g33
I01
sg34
F0.6667916737617485
sg35
g56
sbsg68
g0
(g29
g2
Ntp3886
Rp3887
(dp3888
g33
I01
sg34
F1.3765548058668404
sg35
g68
sbs(I45
I0
tp3889
g0
(g29
g2
Ntp3890
Rp3891
(dp3892
g33
I01
sg34
F-0.5419053345340026
sg35
g3889
sbsg84
g0
(g29
g2
Ntp3893
Rp3894
(dp3895
g33
I01
sg34
F-0.20680960059348175
sg35
g84
sbs(I-23
I45
tp3896
g0
(g29
g2
Ntp3897
Rp3898
(dp3899
g33
I01
sg34
F0.714904161410336
sg35
g3896
sbsg92
g0
(g29
g2
Ntp3900
Rp3901
(dp3902
g33
I01
sg34
F0.010182452657534147
sg35
g92
sbsg108
g0
(g29
g2
Ntp3903
Rp3904
(dp3905
g33
I01
sg34
F1.6086680027812459
sg35
g108
sbsg112
g0
(g29
g2
Ntp3906
Rp3907
(dp3908
g33
I01
sg34
F-0.45205595334825793
sg35
g112
sbsg120
g0
(g29
g2
Ntp3909
Rp3910
(dp3911
g33
I01
sg34
F0.019903739271938337
sg35
g120
sbsg124
g0
(g29
g2
Ntp3912
Rp3913
(dp3914
g33
I01
sg34
F0.22461184028420633
sg35
g124
sbsg140
g0
(g29
g2
Ntp3915
Rp3916
(dp3917
g33
I01
sg34
F-0.10261685685867289
sg35
g140
sbsg152
g0
(g29
g2
Ntp3918
Rp3919
(dp3920
g33
I01
sg34
F0.9118689261787862
sg35
g152
sbsg156
g0
(g29
g2
Ntp3921
Rp3922
(dp3923
g33
I01
sg34
F-0.47328034116346573
sg35
g156
sbsg168
g0
(g29
g2
Ntp3924
Rp3925
(dp3926
g33
I01
sg34
F-1.2915028527274686
sg35
g168
sbsg172
g0
(g29
g2
Ntp3927
Rp3928
(dp3929
g33
I01
sg34
F0.6978983096753779
sg35
g172
sbsg180
g0
(g29
g2
Ntp3930
Rp3931
(dp3932
g33
I01
sg34
F-1.670762495578046
sg35
g180
sbsg184
g0
(g29
g2
Ntp3933
Rp3934
(dp3935
g33
I01
sg34
F-0.16090083992368298
sg35
g184
sbsg192
g0
(g29
g2
Ntp3936
Rp3937
(dp3938
g33
I01
sg34
F-0.9521831231492841
sg35
g192
sbsg3754
g0
(g29
g2
Ntp3939
Rp3940
(dp3941
g33
I01
sg34
F0.8721376947223975
sg35
g3754
sbsg196
g0
(g29
g2
Ntp3942
Rp3943
(dp3944
g33
I00
sg34
F-0.7515915196851989
sg35
g196
sbsg3446
g0
(g29
g2
Ntp3945
Rp3946
(dp3947
g33
I01
sg34
F-0.6089067376509008
sg35
g3446
sbssg208
(dp3948
I0
g0
(g210
g2
Ntp3949
Rp3950
(dp3951
g214
g215
sg216
F0.3764786604002063
sg217
F1.0
sg35
I0
sg218
g219
sbsI45
g0
(g210
g2
Ntp3952
Rp3953
(dp3954
g214
g215
sg216
F-0.5593737145959918
sg217
F1.0
sg35
I45
sg218
g219
sbsI39
g0
(g210
g2
Ntp3955
Rp3956
(dp3957
g214
g215
sg216
F-0.45660232274236545
sg217
F1.0
sg35
I39
sg218
g219
sbssg35
I142
sg223
I0
sbsI89
g3377
sI123
g0
(g22
g2
Ntp3958
Rp3959
(dp3960
g26
(dp3961
g28
g0
(g29
g2
Ntp3962
Rp3963
(dp3964
g33
I01
sg34
F-0.2881994809457913
sg35
g28
sbsg3690
g0
(g29
g2
Ntp3965
Rp3966
(dp3967
g33
I01
sg34
F0.33241014852580597
sg35
g3690
sbsg40
g0
(g29
g2
Ntp3968
Rp3969
(dp3970
g33
I01
sg34
F-0.05412657657278219
sg35
g40
sbsg44
g0
(g29
g2
Ntp3971
Rp3972
(dp3973
g33
I01
sg34
F-0.6600893798210027
sg35
g44
sbsg48
g0
(g29
g2
Ntp3974
Rp3975
(dp3976
g33
I01
sg34
F-1.074631802033748
sg35
g48
sbsg100
g0
(g29
g2
Ntp3977
Rp3978
(dp3979
g33
I01
sg34
F1.5145880231216249
sg35
g100
sbsg56
g0
(g29
g2
Ntp3980
Rp3981
(dp3982
g33
I01
sg34
F0.9903354144206726
sg35
g56
sbsg68
g0
(g29
g2
Ntp3983
Rp3984
(dp3985
g33
I01
sg34
F0.5419045937289261
sg35
g68
sbsg84
g0
(g29
g2
Ntp3986
Rp3987
(dp3988
g33
I01
sg34
F-0.5274644602506969
sg35
g84
sbsg92
g0
(g29
g2
Ntp3989
Rp3990
(dp3991
g33
I01
sg34
F-0.723059590999167
sg35
g92
sbsg108
g0
(g29
g2
Ntp3992
Rp3993
(dp3994
g33
I01
sg34
F1.3714966172332632
sg35
g108
sbsg112
g0
(g29
g2
Ntp3995
Rp3996
(dp3997
g33
I01
sg34
F-1.2441743339318179
sg35
g112
sbsg120
g0
(g29
g2
Ntp3998
Rp3999
(dp4000
g33
I01
sg34
F1.6461298607553023
sg35
g120
sbsg124
g0
(g29
g2
Ntp4001
Rp4002
(dp4003
g33
I01
sg34
F-1.616557229777154
sg35
g124
sbsg140
g0
(g29
g2
Ntp4004
Rp4005
(dp4006
g33
I01
sg34
F0.1865107974806714
sg35
g140
sbsg152
g0
(g29
g2
Ntp4007
Rp4008
(dp4009
g33
I01
sg34
F-0.2536994115626749
sg35
g152
sbsg156
g0
(g29
g2
Ntp4010
Rp4011
(dp4012
g33
I01
sg34
F-0.47328034116346573
sg35
g156
sbsg168
g0
(g29
g2
Ntp4013
Rp4014
(dp4015
g33
I01
sg34
F-1.0653363765963197
sg35
g168
sbsg172
g0
(g29
g2
Ntp4016
Rp4017
(dp4018
g33
I01
sg34
F0.37931806745855107
sg35
g172
sbsg180
g0
(g29
g2
Ntp4019
Rp4020
(dp4021
g33
I01
sg34
F-1.4191851581209334
sg35
g180
sbsg184
g0
(g29
g2
Ntp4022
Rp4023
(dp4024
g33
I01
sg34
F0.168854420063418
sg35
g184
sbsg192
g0
(g29
g2
Ntp4025
Rp4026
(dp4027
g33
I01
sg34
F-0.9218164730275418
sg35
g192
sbsg3754
g0
(g29
g2
Ntp4028
Rp4029
(dp4030
g33
I01
sg34
F0.9679893297440428
sg35
g3754
sbsg196
g0
(g29
g2
Ntp4031
Rp4032
(dp4033
g33
I00
sg34
F0.6282792231434876
sg35
g196
sbsg3446
g0
(g29
g2
Ntp4034
Rp4035
(dp4036
g33
I01
sg34
F-0.7911690002960472
sg35
g3446
sbssg208
(dp4037
I0
g0
(g210
g2
Ntp4038
Rp4039
(dp4040
g214
g215
sg216
F0.18482365553201036
sg217
F1.0
sg35
I0
sg218
g219
sbsI39
g0
(g210
g2
Ntp4041
Rp4042
(dp4043
g214
g215
sg216
F-0.4442259672763184
sg217
F1.0
sg35
I39
sg218
g219
sbssg35
I123
sg223
I0
sbssg223
F17.0
sbssg1520
g1522
sg10
g13
sbsS'population'
p4044
(dp4045
I139
g3610
sI145
g3120
sI133
g2083
sI134
g2236
sI135
g2392
sI104
g2544
sI137
g3456
sI138
g3533
sI107
g1883
sI140
g3684
sI141
g3772
sI142
g3862
sI143
g2948
sI144
g3034
sI136
g2711
sI146
g3207
sI131
g2868
sI147
g3287
sI89
g3377
sI123
g3959
sI101
g1425
ssb.